
Drivers.axf:     file format elf32-littlearm


Disassembly of section .isr_vector:

08000000 <g_pfnVectors>:
 8000000:	20002800 	andcs	r2, r0, r0, lsl #16
 8000004:	08000269 	stmdaeq	r0, {r0, r3, r5, r6, r9}
 8000008:	080002b9 	stmdaeq	r0, {r0, r3, r4, r5, r7, r9}
 800000c:	080002b9 	stmdaeq	r0, {r0, r3, r4, r5, r7, r9}
 8000010:	080002b9 	stmdaeq	r0, {r0, r3, r4, r5, r7, r9}
 8000014:	080002b9 	stmdaeq	r0, {r0, r3, r4, r5, r7, r9}
 8000018:	080002b9 	stmdaeq	r0, {r0, r3, r4, r5, r7, r9}
	...
 800002c:	080002b9 	stmdaeq	r0, {r0, r3, r4, r5, r7, r9}
 8000030:	080002b9 	stmdaeq	r0, {r0, r3, r4, r5, r7, r9}
 8000034:	00000000 	andeq	r0, r0, r0
 8000038:	080002b9 	stmdaeq	r0, {r0, r3, r4, r5, r7, r9}
 800003c:	080002b9 	stmdaeq	r0, {r0, r3, r4, r5, r7, r9}
 8000040:	080002b9 	stmdaeq	r0, {r0, r3, r4, r5, r7, r9}
 8000044:	080002b9 	stmdaeq	r0, {r0, r3, r4, r5, r7, r9}
 8000048:	080002b9 	stmdaeq	r0, {r0, r3, r4, r5, r7, r9}
 800004c:	080002b9 	stmdaeq	r0, {r0, r3, r4, r5, r7, r9}
 8000050:	080002b9 	stmdaeq	r0, {r0, r3, r4, r5, r7, r9}
 8000054:	080002b9 	stmdaeq	r0, {r0, r3, r4, r5, r7, r9}
 8000058:	08000639 	stmdaeq	r0, {r0, r3, r4, r5, r9, sl}
 800005c:	0800065d 	stmdaeq	r0, {r0, r2, r3, r4, r6, r9, sl}
 8000060:	08000681 	stmdaeq	r0, {r0, r7, r9, sl}
 8000064:	080006a5 	stmdaeq	r0, {r0, r2, r5, r7, r9, sl}
 8000068:	080006c9 	stmdaeq	r0, {r0, r3, r6, r7, r9, sl}
 800006c:	080002b9 	stmdaeq	r0, {r0, r3, r4, r5, r7, r9}
 8000070:	080002b9 	stmdaeq	r0, {r0, r3, r4, r5, r7, r9}
 8000074:	080002b9 	stmdaeq	r0, {r0, r3, r4, r5, r7, r9}
 8000078:	080002b9 	stmdaeq	r0, {r0, r3, r4, r5, r7, r9}
 800007c:	080002b9 	stmdaeq	r0, {r0, r3, r4, r5, r7, r9}
 8000080:	080002b9 	stmdaeq	r0, {r0, r3, r4, r5, r7, r9}
 8000084:	080002b9 	stmdaeq	r0, {r0, r3, r4, r5, r7, r9}
 8000088:	080002b9 	stmdaeq	r0, {r0, r3, r4, r5, r7, r9}
 800008c:	080002b9 	stmdaeq	r0, {r0, r3, r4, r5, r7, r9}
 8000090:	080002b9 	stmdaeq	r0, {r0, r3, r4, r5, r7, r9}
 8000094:	080002b9 	stmdaeq	r0, {r0, r3, r4, r5, r7, r9}
 8000098:	080002b9 	stmdaeq	r0, {r0, r3, r4, r5, r7, r9}
 800009c:	080006ed 	stmdaeq	r0, {r0, r2, r3, r5, r6, r7, r9, sl}
 80000a0:	080002b9 	stmdaeq	r0, {r0, r3, r4, r5, r7, r9}
 80000a4:	080002b9 	stmdaeq	r0, {r0, r3, r4, r5, r7, r9}
 80000a8:	080002b9 	stmdaeq	r0, {r0, r3, r4, r5, r7, r9}
 80000ac:	080002b9 	stmdaeq	r0, {r0, r3, r4, r5, r7, r9}
 80000b0:	080002b9 	stmdaeq	r0, {r0, r3, r4, r5, r7, r9}
 80000b4:	080002b9 	stmdaeq	r0, {r0, r3, r4, r5, r7, r9}
 80000b8:	080002b9 	stmdaeq	r0, {r0, r3, r4, r5, r7, r9}
 80000bc:	08000af5 	stmdaeq	r0, {r0, r2, r4, r5, r6, r7, r9, fp}
 80000c0:	080002b9 	stmdaeq	r0, {r0, r3, r4, r5, r7, r9}
 80000c4:	080002b9 	stmdaeq	r0, {r0, r3, r4, r5, r7, r9}
 80000c8:	080002b9 	stmdaeq	r0, {r0, r3, r4, r5, r7, r9}
 80000cc:	08000bdd 	stmdaeq	r0, {r0, r2, r3, r4, r6, r7, r8, r9, fp}
 80000d0:	08000c39 	stmdaeq	r0, {r0, r3, r4, r5, sl, fp}
 80000d4:	08000c95 	stmdaeq	r0, {r0, r2, r4, r7, sl, fp}
 80000d8:	08000ca9 	stmdaeq	r0, {r0, r3, r5, r7, sl, fp}
 80000dc:	08000cbd 	stmdaeq	r0, {r0, r2, r3, r4, r5, r7, sl, fp}
 80000e0:	08000795 	stmdaeq	r0, {r0, r2, r4, r7, r8, r9, sl}
 80000e4:	080002b9 	stmdaeq	r0, {r0, r3, r4, r5, r7, r9}
 80000e8:	00000000 	andeq	r0, r0, r0
 80000ec:	080002b9 	stmdaeq	r0, {r0, r3, r4, r5, r7, r9}
 80000f0:	080002b9 	stmdaeq	r0, {r0, r3, r4, r5, r7, r9}
 80000f4:	080002b9 	stmdaeq	r0, {r0, r3, r4, r5, r7, r9}
 80000f8:	080002b9 	stmdaeq	r0, {r0, r3, r4, r5, r7, r9}
 80000fc:	080002b9 	stmdaeq	r0, {r0, r3, r4, r5, r7, r9}
 8000100:	080002b9 	stmdaeq	r0, {r0, r3, r4, r5, r7, r9}
 8000104:	080002b9 	stmdaeq	r0, {r0, r3, r4, r5, r7, r9}
 8000108:	080002b9 	stmdaeq	r0, {r0, r3, r4, r5, r7, r9}
 800010c:	080002b9 	stmdaeq	r0, {r0, r3, r4, r5, r7, r9}
 8000110:	080002b9 	stmdaeq	r0, {r0, r3, r4, r5, r7, r9}
 8000114:	080002b9 	stmdaeq	r0, {r0, r3, r4, r5, r7, r9}
 8000118:	080002b9 	stmdaeq	r0, {r0, r3, r4, r5, r7, r9}
 800011c:	080002b9 	stmdaeq	r0, {r0, r3, r4, r5, r7, r9}
 8000120:	080002b9 	stmdaeq	r0, {r0, r3, r4, r5, r7, r9}
 8000124:	080002b9 	stmdaeq	r0, {r0, r3, r4, r5, r7, r9}
 8000128:	080002b9 	stmdaeq	r0, {r0, r3, r4, r5, r7, r9}
 800012c:	080002b9 	stmdaeq	r0, {r0, r3, r4, r5, r7, r9}

Disassembly of section .text:

08000130 <__do_global_dtors_aux>:
 8000130:	b510      	push	{r4, lr}
 8000132:	4c05      	ldr	r4, [pc, #20]	; (8000148 <__do_global_dtors_aux+0x18>)
 8000134:	7823      	ldrb	r3, [r4, #0]
 8000136:	b933      	cbnz	r3, 8000146 <__do_global_dtors_aux+0x16>
 8000138:	4b04      	ldr	r3, [pc, #16]	; (800014c <__do_global_dtors_aux+0x1c>)
 800013a:	b113      	cbz	r3, 8000142 <__do_global_dtors_aux+0x12>
 800013c:	4804      	ldr	r0, [pc, #16]	; (8000150 <__do_global_dtors_aux+0x20>)
 800013e:	f3af 8000 	nop.w
 8000142:	2301      	movs	r3, #1
 8000144:	7023      	strb	r3, [r4, #0]
 8000146:	bd10      	pop	{r4, pc}
 8000148:	20000000 	andcs	r0, r0, r0
 800014c:	00000000 	andeq	r0, r0, r0
 8000150:	08000d18 	stmdaeq	r0, {r3, r4, r8, sl, fp}

08000154 <frame_dummy>:
 8000154:	b508      	push	{r3, lr}
 8000156:	4b03      	ldr	r3, [pc, #12]	; (8000164 <frame_dummy+0x10>)
 8000158:	b11b      	cbz	r3, 8000162 <frame_dummy+0xe>
 800015a:	4903      	ldr	r1, [pc, #12]	; (8000168 <frame_dummy+0x14>)
 800015c:	4803      	ldr	r0, [pc, #12]	; (800016c <frame_dummy+0x18>)
 800015e:	f3af 8000 	nop.w
 8000162:	bd08      	pop	{r3, pc}
 8000164:	00000000 	andeq	r0, r0, r0
 8000168:	20000004 	andcs	r0, r0, r4
 800016c:	08000d18 	stmdaeq	r0, {r3, r4, r8, sl, fp}

08000170 <Clock_INIT>:
 8000170:	b480      	push	{r7}
 8000172:	af00      	add	r7, sp, #0
 8000174:	4b19      	ldr	r3, [pc, #100]	; (80001dc <Clock_INIT+0x6c>)
 8000176:	699b      	ldr	r3, [r3, #24]
 8000178:	4a18      	ldr	r2, [pc, #96]	; (80001dc <Clock_INIT+0x6c>)
 800017a:	f043 0304 	orr.w	r3, r3, #4
 800017e:	6193      	str	r3, [r2, #24]
 8000180:	4b16      	ldr	r3, [pc, #88]	; (80001dc <Clock_INIT+0x6c>)
 8000182:	699b      	ldr	r3, [r3, #24]
 8000184:	4a15      	ldr	r2, [pc, #84]	; (80001dc <Clock_INIT+0x6c>)
 8000186:	f043 0308 	orr.w	r3, r3, #8
 800018a:	6193      	str	r3, [r2, #24]
 800018c:	4b13      	ldr	r3, [pc, #76]	; (80001dc <Clock_INIT+0x6c>)
 800018e:	699b      	ldr	r3, [r3, #24]
 8000190:	4a12      	ldr	r2, [pc, #72]	; (80001dc <Clock_INIT+0x6c>)
 8000192:	f043 0310 	orr.w	r3, r3, #16
 8000196:	6193      	str	r3, [r2, #24]
 8000198:	4b10      	ldr	r3, [pc, #64]	; (80001dc <Clock_INIT+0x6c>)
 800019a:	699b      	ldr	r3, [r3, #24]
 800019c:	4a0f      	ldr	r2, [pc, #60]	; (80001dc <Clock_INIT+0x6c>)
 800019e:	f043 0301 	orr.w	r3, r3, #1
 80001a2:	6193      	str	r3, [r2, #24]
 80001a4:	4b0d      	ldr	r3, [pc, #52]	; (80001dc <Clock_INIT+0x6c>)
 80001a6:	69db      	ldr	r3, [r3, #28]
 80001a8:	4a0c      	ldr	r2, [pc, #48]	; (80001dc <Clock_INIT+0x6c>)
 80001aa:	f043 0301 	orr.w	r3, r3, #1
 80001ae:	61d3      	str	r3, [r2, #28]
 80001b0:	4b0a      	ldr	r3, [pc, #40]	; (80001dc <Clock_INIT+0x6c>)
 80001b2:	69db      	ldr	r3, [r3, #28]
 80001b4:	4a09      	ldr	r2, [pc, #36]	; (80001dc <Clock_INIT+0x6c>)
 80001b6:	f043 0302 	orr.w	r3, r3, #2
 80001ba:	61d3      	str	r3, [r2, #28]
 80001bc:	4b07      	ldr	r3, [pc, #28]	; (80001dc <Clock_INIT+0x6c>)
 80001be:	69db      	ldr	r3, [r3, #28]
 80001c0:	4a06      	ldr	r2, [pc, #24]	; (80001dc <Clock_INIT+0x6c>)
 80001c2:	f043 0304 	orr.w	r3, r3, #4
 80001c6:	61d3      	str	r3, [r2, #28]
 80001c8:	4b04      	ldr	r3, [pc, #16]	; (80001dc <Clock_INIT+0x6c>)
 80001ca:	699b      	ldr	r3, [r3, #24]
 80001cc:	4a03      	ldr	r2, [pc, #12]	; (80001dc <Clock_INIT+0x6c>)
 80001ce:	f443 7300 	orr.w	r3, r3, #512	; 0x200
 80001d2:	6193      	str	r3, [r2, #24]
 80001d4:	bf00      	nop
 80001d6:	46bd      	mov	sp, r7
 80001d8:	bc80      	pop	{r7}
 80001da:	4770      	bx	lr
 80001dc:	40021000 	andmi	r1, r2, r0

080001e0 <Switch_CPU_Access_Level>:
 80001e0:	b480      	push	{r7}
 80001e2:	b083      	sub	sp, #12
 80001e4:	af00      	add	r7, sp, #0
 80001e6:	4603      	mov	r3, r0
 80001e8:	71fb      	strb	r3, [r7, #7]
 80001ea:	79fb      	ldrb	r3, [r7, #7]
 80001ec:	2b00      	cmp	r3, #0
 80001ee:	d002      	beq.n	80001f6 <Switch_CPU_Access_Level+0x16>
 80001f0:	2b01      	cmp	r3, #1
 80001f2:	d009      	beq.n	8000208 <Switch_CPU_Access_Level+0x28>
 80001f4:	e00f      	b.n	8000216 <Switch_CPU_Access_Level+0x36>
 80001f6:	f3ef 8314 	mrs	r3, CONTROL
 80001fa:	ea4f 0353 	mov.w	r3, r3, lsr #1
 80001fe:	ea4f 0343 	mov.w	r3, r3, lsl #1
 8000202:	f383 8814 	msr	CONTROL, r3
 8000206:	e006      	b.n	8000216 <Switch_CPU_Access_Level+0x36>
 8000208:	f3ef 8314 	mrs	r3, CONTROL
 800020c:	f043 0301 	orr.w	r3, r3, #1
 8000210:	f383 8814 	msr	CONTROL, r3
 8000214:	bf00      	nop
 8000216:	bf00      	nop
 8000218:	370c      	adds	r7, #12
 800021a:	46bd      	mov	sp, r7
 800021c:	bc80      	pop	{r7}
 800021e:	4770      	bx	lr

08000220 <EXTI_9>:
 8000220:	b580      	push	{r7, lr}
 8000222:	af00      	add	r7, sp, #0
 8000224:	2000      	movs	r0, #0
 8000226:	f7ff ffdb 	bl	80001e0 <Switch_CPU_Access_Level>
 800022a:	bf00      	nop
 800022c:	bd80      	pop	{r7, pc}
	...

08000230 <main>:
 8000230:	b580      	push	{r7, lr}
 8000232:	b086      	sub	sp, #24
 8000234:	af00      	add	r7, sp, #0
 8000236:	f7ff ff9b 	bl	8000170 <Clock_INIT>
 800023a:	4a09      	ldr	r2, [pc, #36]	; (8000260 <main+0x30>)
 800023c:	1d3b      	adds	r3, r7, #4
 800023e:	ca07      	ldmia	r2, {r0, r1, r2}
 8000240:	e883 0007 	stmia.w	r3, {r0, r1, r2}
 8000244:	2300      	movs	r3, #0
 8000246:	743b      	strb	r3, [r7, #16]
 8000248:	4b06      	ldr	r3, [pc, #24]	; (8000264 <main+0x34>)
 800024a:	617b      	str	r3, [r7, #20]
 800024c:	2301      	movs	r3, #1
 800024e:	747b      	strb	r3, [r7, #17]
 8000250:	1d3b      	adds	r3, r7, #4
 8000252:	4618      	mov	r0, r3
 8000254:	f000 f9e4 	bl	8000620 <MCAL_EXTI_GPIO_Init>
 8000258:	2001      	movs	r0, #1
 800025a:	f7ff ffc1 	bl	80001e0 <Switch_CPU_Access_Level>
 800025e:	e7fe      	b.n	800025e <main+0x2e>
 8000260:	08000d30 	stmdaeq	r0, {r4, r5, r8, sl, fp}
 8000264:	08000221 	stmdaeq	r0, {r0, r5, r9}

08000268 <Reset_Handler>:
 8000268:	480d      	ldr	r0, [pc, #52]	; (80002a0 <LoopForever+0x2>)
 800026a:	4685      	mov	sp, r0
 800026c:	f3af 8000 	nop.w
 8000270:	480c      	ldr	r0, [pc, #48]	; (80002a4 <LoopForever+0x6>)
 8000272:	490d      	ldr	r1, [pc, #52]	; (80002a8 <LoopForever+0xa>)
 8000274:	4a0d      	ldr	r2, [pc, #52]	; (80002ac <LoopForever+0xe>)
 8000276:	2300      	movs	r3, #0
 8000278:	e002      	b.n	8000280 <LoopCopyDataInit>

0800027a <CopyDataInit>:
 800027a:	58d4      	ldr	r4, [r2, r3]
 800027c:	50c4      	str	r4, [r0, r3]
 800027e:	3304      	adds	r3, #4

08000280 <LoopCopyDataInit>:
 8000280:	18c4      	adds	r4, r0, r3
 8000282:	428c      	cmp	r4, r1
 8000284:	d3f9      	bcc.n	800027a <CopyDataInit>
 8000286:	4a0a      	ldr	r2, [pc, #40]	; (80002b0 <LoopForever+0x12>)
 8000288:	4c0a      	ldr	r4, [pc, #40]	; (80002b4 <LoopForever+0x16>)
 800028a:	2300      	movs	r3, #0
 800028c:	e001      	b.n	8000292 <LoopFillZerobss>

0800028e <FillZerobss>:
 800028e:	6013      	str	r3, [r2, #0]
 8000290:	3204      	adds	r2, #4

08000292 <LoopFillZerobss>:
 8000292:	42a2      	cmp	r2, r4
 8000294:	d3fb      	bcc.n	800028e <FillZerobss>
 8000296:	f000 fd1b 	bl	8000cd0 <__libc_init_array>
 800029a:	f7ff ffc9 	bl	8000230 <main>

0800029e <LoopForever>:
 800029e:	e7fe      	b.n	800029e <LoopForever>
 80002a0:	20002800 	andcs	r2, r0, r0, lsl #16
 80002a4:	20000000 	andcs	r0, r0, r0
 80002a8:	20000000 	andcs	r0, r0, r0
 80002ac:	08000d44 	stmdaeq	r0, {r2, r6, r8, sl, fp}
 80002b0:	20000000 	andcs	r0, r0, r0
 80002b4:	200000a4 	andcs	r0, r0, r4, lsr #1

080002b8 <ADC1_2_IRQHandler>:
 80002b8:	e7fe      	b.n	80002b8 <ADC1_2_IRQHandler>
	...

080002bc <Enable_NVIC>:
 80002bc:	b480      	push	{r7}
 80002be:	b083      	sub	sp, #12
 80002c0:	af00      	add	r7, sp, #0
 80002c2:	4603      	mov	r3, r0
 80002c4:	80fb      	strh	r3, [r7, #6]
 80002c6:	88fb      	ldrh	r3, [r7, #6]
 80002c8:	2b0f      	cmp	r3, #15
 80002ca:	d854      	bhi.n	8000376 <Enable_NVIC+0xba>
 80002cc:	a201      	add	r2, pc, #4	; (adr r2, 80002d4 <Enable_NVIC+0x18>)
 80002ce:	f852 f023 	ldr.w	pc, [r2, r3, lsl #2]
 80002d2:	bf00      	nop
 80002d4:	08000315 	stmdaeq	r0, {r0, r2, r4, r8, r9}
 80002d8:	08000323 	stmdaeq	r0, {r0, r1, r5, r8, r9}
 80002dc:	08000331 	stmdaeq	r0, {r0, r4, r5, r8, r9}
 80002e0:	0800033f 	stmdaeq	r0, {r0, r1, r2, r3, r4, r5, r8, r9}
 80002e4:	0800034d 	stmdaeq	r0, {r0, r2, r3, r6, r8, r9}
 80002e8:	0800035b 	stmdaeq	r0, {r0, r1, r3, r4, r6, r8, r9}
 80002ec:	0800035b 	stmdaeq	r0, {r0, r1, r3, r4, r6, r8, r9}
 80002f0:	0800035b 	stmdaeq	r0, {r0, r1, r3, r4, r6, r8, r9}
 80002f4:	0800035b 	stmdaeq	r0, {r0, r1, r3, r4, r6, r8, r9}
 80002f8:	0800035b 	stmdaeq	r0, {r0, r1, r3, r4, r6, r8, r9}
 80002fc:	08000369 	stmdaeq	r0, {r0, r3, r5, r6, r8, r9}
 8000300:	08000369 	stmdaeq	r0, {r0, r3, r5, r6, r8, r9}
 8000304:	08000369 	stmdaeq	r0, {r0, r3, r5, r6, r8, r9}
 8000308:	08000369 	stmdaeq	r0, {r0, r3, r5, r6, r8, r9}
 800030c:	08000369 	stmdaeq	r0, {r0, r3, r5, r6, r8, r9}
 8000310:	08000369 	stmdaeq	r0, {r0, r3, r5, r6, r8, r9}
 8000314:	4b1a      	ldr	r3, [pc, #104]	; (8000380 <Enable_NVIC+0xc4>)
 8000316:	681b      	ldr	r3, [r3, #0]
 8000318:	4a19      	ldr	r2, [pc, #100]	; (8000380 <Enable_NVIC+0xc4>)
 800031a:	f043 0340 	orr.w	r3, r3, #64	; 0x40
 800031e:	6013      	str	r3, [r2, #0]
 8000320:	e029      	b.n	8000376 <Enable_NVIC+0xba>
 8000322:	4b17      	ldr	r3, [pc, #92]	; (8000380 <Enable_NVIC+0xc4>)
 8000324:	681b      	ldr	r3, [r3, #0]
 8000326:	4a16      	ldr	r2, [pc, #88]	; (8000380 <Enable_NVIC+0xc4>)
 8000328:	f043 0380 	orr.w	r3, r3, #128	; 0x80
 800032c:	6013      	str	r3, [r2, #0]
 800032e:	e022      	b.n	8000376 <Enable_NVIC+0xba>
 8000330:	4b13      	ldr	r3, [pc, #76]	; (8000380 <Enable_NVIC+0xc4>)
 8000332:	681b      	ldr	r3, [r3, #0]
 8000334:	4a12      	ldr	r2, [pc, #72]	; (8000380 <Enable_NVIC+0xc4>)
 8000336:	f443 7380 	orr.w	r3, r3, #256	; 0x100
 800033a:	6013      	str	r3, [r2, #0]
 800033c:	e01b      	b.n	8000376 <Enable_NVIC+0xba>
 800033e:	4b10      	ldr	r3, [pc, #64]	; (8000380 <Enable_NVIC+0xc4>)
 8000340:	681b      	ldr	r3, [r3, #0]
 8000342:	4a0f      	ldr	r2, [pc, #60]	; (8000380 <Enable_NVIC+0xc4>)
 8000344:	f443 7300 	orr.w	r3, r3, #512	; 0x200
 8000348:	6013      	str	r3, [r2, #0]
 800034a:	e014      	b.n	8000376 <Enable_NVIC+0xba>
 800034c:	4b0c      	ldr	r3, [pc, #48]	; (8000380 <Enable_NVIC+0xc4>)
 800034e:	681b      	ldr	r3, [r3, #0]
 8000350:	4a0b      	ldr	r2, [pc, #44]	; (8000380 <Enable_NVIC+0xc4>)
 8000352:	f443 6380 	orr.w	r3, r3, #1024	; 0x400
 8000356:	6013      	str	r3, [r2, #0]
 8000358:	e00d      	b.n	8000376 <Enable_NVIC+0xba>
 800035a:	4b09      	ldr	r3, [pc, #36]	; (8000380 <Enable_NVIC+0xc4>)
 800035c:	681b      	ldr	r3, [r3, #0]
 800035e:	4a08      	ldr	r2, [pc, #32]	; (8000380 <Enable_NVIC+0xc4>)
 8000360:	f443 0300 	orr.w	r3, r3, #8388608	; 0x800000
 8000364:	6013      	str	r3, [r2, #0]
 8000366:	e006      	b.n	8000376 <Enable_NVIC+0xba>
 8000368:	4b06      	ldr	r3, [pc, #24]	; (8000384 <Enable_NVIC+0xc8>)
 800036a:	681b      	ldr	r3, [r3, #0]
 800036c:	4a05      	ldr	r2, [pc, #20]	; (8000384 <Enable_NVIC+0xc8>)
 800036e:	f443 7380 	orr.w	r3, r3, #256	; 0x100
 8000372:	6013      	str	r3, [r2, #0]
 8000374:	bf00      	nop
 8000376:	bf00      	nop
 8000378:	370c      	adds	r7, #12
 800037a:	46bd      	mov	sp, r7
 800037c:	bc80      	pop	{r7}
 800037e:	4770      	bx	lr
 8000380:	e000e100 	and	lr, r0, r0, lsl #2
 8000384:	e000e104 	and	lr, r0, r4, lsl #2

08000388 <Disable_NVIC>:
 8000388:	b480      	push	{r7}
 800038a:	b083      	sub	sp, #12
 800038c:	af00      	add	r7, sp, #0
 800038e:	4603      	mov	r3, r0
 8000390:	80fb      	strh	r3, [r7, #6]
 8000392:	88fb      	ldrh	r3, [r7, #6]
 8000394:	2b0f      	cmp	r3, #15
 8000396:	d854      	bhi.n	8000442 <Disable_NVIC+0xba>
 8000398:	a201      	add	r2, pc, #4	; (adr r2, 80003a0 <Disable_NVIC+0x18>)
 800039a:	f852 f023 	ldr.w	pc, [r2, r3, lsl #2]
 800039e:	bf00      	nop
 80003a0:	080003e1 	stmdaeq	r0, {r0, r5, r6, r7, r8, r9}
 80003a4:	080003ef 	stmdaeq	r0, {r0, r1, r2, r3, r5, r6, r7, r8, r9}
 80003a8:	080003fd 	stmdaeq	r0, {r0, r2, r3, r4, r5, r6, r7, r8, r9}
 80003ac:	0800040b 	stmdaeq	r0, {r0, r1, r3, sl}
 80003b0:	08000419 	stmdaeq	r0, {r0, r3, r4, sl}
 80003b4:	08000427 	stmdaeq	r0, {r0, r1, r2, r5, sl}
 80003b8:	08000427 	stmdaeq	r0, {r0, r1, r2, r5, sl}
 80003bc:	08000427 	stmdaeq	r0, {r0, r1, r2, r5, sl}
 80003c0:	08000427 	stmdaeq	r0, {r0, r1, r2, r5, sl}
 80003c4:	08000427 	stmdaeq	r0, {r0, r1, r2, r5, sl}
 80003c8:	08000435 	stmdaeq	r0, {r0, r2, r4, r5, sl}
 80003cc:	08000435 	stmdaeq	r0, {r0, r2, r4, r5, sl}
 80003d0:	08000435 	stmdaeq	r0, {r0, r2, r4, r5, sl}
 80003d4:	08000435 	stmdaeq	r0, {r0, r2, r4, r5, sl}
 80003d8:	08000435 	stmdaeq	r0, {r0, r2, r4, r5, sl}
 80003dc:	08000435 	stmdaeq	r0, {r0, r2, r4, r5, sl}
 80003e0:	4b1a      	ldr	r3, [pc, #104]	; (800044c <Disable_NVIC+0xc4>)
 80003e2:	681b      	ldr	r3, [r3, #0]
 80003e4:	4a19      	ldr	r2, [pc, #100]	; (800044c <Disable_NVIC+0xc4>)
 80003e6:	f043 0340 	orr.w	r3, r3, #64	; 0x40
 80003ea:	6013      	str	r3, [r2, #0]
 80003ec:	e029      	b.n	8000442 <Disable_NVIC+0xba>
 80003ee:	4b17      	ldr	r3, [pc, #92]	; (800044c <Disable_NVIC+0xc4>)
 80003f0:	681b      	ldr	r3, [r3, #0]
 80003f2:	4a16      	ldr	r2, [pc, #88]	; (800044c <Disable_NVIC+0xc4>)
 80003f4:	f043 0380 	orr.w	r3, r3, #128	; 0x80
 80003f8:	6013      	str	r3, [r2, #0]
 80003fa:	e022      	b.n	8000442 <Disable_NVIC+0xba>
 80003fc:	4b13      	ldr	r3, [pc, #76]	; (800044c <Disable_NVIC+0xc4>)
 80003fe:	681b      	ldr	r3, [r3, #0]
 8000400:	4a12      	ldr	r2, [pc, #72]	; (800044c <Disable_NVIC+0xc4>)
 8000402:	f443 7380 	orr.w	r3, r3, #256	; 0x100
 8000406:	6013      	str	r3, [r2, #0]
 8000408:	e01b      	b.n	8000442 <Disable_NVIC+0xba>
 800040a:	4b10      	ldr	r3, [pc, #64]	; (800044c <Disable_NVIC+0xc4>)
 800040c:	681b      	ldr	r3, [r3, #0]
 800040e:	4a0f      	ldr	r2, [pc, #60]	; (800044c <Disable_NVIC+0xc4>)
 8000410:	f443 7300 	orr.w	r3, r3, #512	; 0x200
 8000414:	6013      	str	r3, [r2, #0]
 8000416:	e014      	b.n	8000442 <Disable_NVIC+0xba>
 8000418:	4b0c      	ldr	r3, [pc, #48]	; (800044c <Disable_NVIC+0xc4>)
 800041a:	681b      	ldr	r3, [r3, #0]
 800041c:	4a0b      	ldr	r2, [pc, #44]	; (800044c <Disable_NVIC+0xc4>)
 800041e:	f443 6380 	orr.w	r3, r3, #1024	; 0x400
 8000422:	6013      	str	r3, [r2, #0]
 8000424:	e00d      	b.n	8000442 <Disable_NVIC+0xba>
 8000426:	4b09      	ldr	r3, [pc, #36]	; (800044c <Disable_NVIC+0xc4>)
 8000428:	681b      	ldr	r3, [r3, #0]
 800042a:	4a08      	ldr	r2, [pc, #32]	; (800044c <Disable_NVIC+0xc4>)
 800042c:	f443 0300 	orr.w	r3, r3, #8388608	; 0x800000
 8000430:	6013      	str	r3, [r2, #0]
 8000432:	e006      	b.n	8000442 <Disable_NVIC+0xba>
 8000434:	4b06      	ldr	r3, [pc, #24]	; (8000450 <Disable_NVIC+0xc8>)
 8000436:	681b      	ldr	r3, [r3, #0]
 8000438:	4a05      	ldr	r2, [pc, #20]	; (8000450 <Disable_NVIC+0xc8>)
 800043a:	f443 7380 	orr.w	r3, r3, #256	; 0x100
 800043e:	6013      	str	r3, [r2, #0]
 8000440:	bf00      	nop
 8000442:	bf00      	nop
 8000444:	370c      	adds	r7, #12
 8000446:	46bd      	mov	sp, r7
 8000448:	bc80      	pop	{r7}
 800044a:	4770      	bx	lr
 800044c:	e000e180 	and	lr, r0, r0, lsl #3
 8000450:	e000e184 	and	lr, r0, r4, lsl #3

08000454 <Configuration_EXTI>:
 8000454:	b580      	push	{r7, lr}
 8000456:	b084      	sub	sp, #16
 8000458:	af00      	add	r7, sp, #0
 800045a:	6078      	str	r0, [r7, #4]
 800045c:	687b      	ldr	r3, [r7, #4]
 800045e:	891b      	ldrh	r3, [r3, #8]
 8000460:	813b      	strh	r3, [r7, #8]
 8000462:	2308      	movs	r3, #8
 8000464:	72bb      	strb	r3, [r7, #10]
 8000466:	687b      	ldr	r3, [r7, #4]
 8000468:	685b      	ldr	r3, [r3, #4]
 800046a:	f107 0208 	add.w	r2, r7, #8
 800046e:	4611      	mov	r1, r2
 8000470:	4618      	mov	r0, r3
 8000472:	f000 fa54 	bl	800091e <MCAL_GPIO_Init>
 8000476:	687b      	ldr	r3, [r7, #4]
 8000478:	881b      	ldrh	r3, [r3, #0]
 800047a:	089b      	lsrs	r3, r3, #2
 800047c:	b29b      	uxth	r3, r3
 800047e:	73fb      	strb	r3, [r7, #15]
 8000480:	687b      	ldr	r3, [r7, #4]
 8000482:	881b      	ldrh	r3, [r3, #0]
 8000484:	b2db      	uxtb	r3, r3
 8000486:	f003 0303 	and.w	r3, r3, #3
 800048a:	b2db      	uxtb	r3, r3
 800048c:	009b      	lsls	r3, r3, #2
 800048e:	73bb      	strb	r3, [r7, #14]
 8000490:	4a5d      	ldr	r2, [pc, #372]	; (8000608 <Configuration_EXTI+0x1b4>)
 8000492:	7bfb      	ldrb	r3, [r7, #15]
 8000494:	3302      	adds	r3, #2
 8000496:	f852 2023 	ldr.w	r2, [r2, r3, lsl #2]
 800049a:	7bbb      	ldrb	r3, [r7, #14]
 800049c:	210f      	movs	r1, #15
 800049e:	fa01 f303 	lsl.w	r3, r1, r3
 80004a2:	43db      	mvns	r3, r3
 80004a4:	4618      	mov	r0, r3
 80004a6:	4958      	ldr	r1, [pc, #352]	; (8000608 <Configuration_EXTI+0x1b4>)
 80004a8:	7bfb      	ldrb	r3, [r7, #15]
 80004aa:	4002      	ands	r2, r0
 80004ac:	3302      	adds	r3, #2
 80004ae:	f841 2023 	str.w	r2, [r1, r3, lsl #2]
 80004b2:	4a55      	ldr	r2, [pc, #340]	; (8000608 <Configuration_EXTI+0x1b4>)
 80004b4:	7bfb      	ldrb	r3, [r7, #15]
 80004b6:	3302      	adds	r3, #2
 80004b8:	f852 2023 	ldr.w	r2, [r2, r3, lsl #2]
 80004bc:	687b      	ldr	r3, [r7, #4]
 80004be:	685b      	ldr	r3, [r3, #4]
 80004c0:	4952      	ldr	r1, [pc, #328]	; (800060c <Configuration_EXTI+0x1b8>)
 80004c2:	428b      	cmp	r3, r1
 80004c4:	d016      	beq.n	80004f4 <Configuration_EXTI+0xa0>
 80004c6:	687b      	ldr	r3, [r7, #4]
 80004c8:	685b      	ldr	r3, [r3, #4]
 80004ca:	4951      	ldr	r1, [pc, #324]	; (8000610 <Configuration_EXTI+0x1bc>)
 80004cc:	428b      	cmp	r3, r1
 80004ce:	d00f      	beq.n	80004f0 <Configuration_EXTI+0x9c>
 80004d0:	687b      	ldr	r3, [r7, #4]
 80004d2:	685b      	ldr	r3, [r3, #4]
 80004d4:	494f      	ldr	r1, [pc, #316]	; (8000614 <Configuration_EXTI+0x1c0>)
 80004d6:	428b      	cmp	r3, r1
 80004d8:	d008      	beq.n	80004ec <Configuration_EXTI+0x98>
 80004da:	687b      	ldr	r3, [r7, #4]
 80004dc:	685b      	ldr	r3, [r3, #4]
 80004de:	494b      	ldr	r1, [pc, #300]	; (800060c <Configuration_EXTI+0x1b8>)
 80004e0:	428b      	cmp	r3, r1
 80004e2:	d101      	bne.n	80004e8 <Configuration_EXTI+0x94>
 80004e4:	2303      	movs	r3, #3
 80004e6:	e006      	b.n	80004f6 <Configuration_EXTI+0xa2>
 80004e8:	2300      	movs	r3, #0
 80004ea:	e004      	b.n	80004f6 <Configuration_EXTI+0xa2>
 80004ec:	2302      	movs	r3, #2
 80004ee:	e002      	b.n	80004f6 <Configuration_EXTI+0xa2>
 80004f0:	2301      	movs	r3, #1
 80004f2:	e000      	b.n	80004f6 <Configuration_EXTI+0xa2>
 80004f4:	2300      	movs	r3, #0
 80004f6:	7bb9      	ldrb	r1, [r7, #14]
 80004f8:	408b      	lsls	r3, r1
 80004fa:	4618      	mov	r0, r3
 80004fc:	4942      	ldr	r1, [pc, #264]	; (8000608 <Configuration_EXTI+0x1b4>)
 80004fe:	7bfb      	ldrb	r3, [r7, #15]
 8000500:	4302      	orrs	r2, r0
 8000502:	3302      	adds	r3, #2
 8000504:	f841 2023 	str.w	r2, [r1, r3, lsl #2]
 8000508:	4b43      	ldr	r3, [pc, #268]	; (8000618 <Configuration_EXTI+0x1c4>)
 800050a:	689b      	ldr	r3, [r3, #8]
 800050c:	687a      	ldr	r2, [r7, #4]
 800050e:	8812      	ldrh	r2, [r2, #0]
 8000510:	4611      	mov	r1, r2
 8000512:	2201      	movs	r2, #1
 8000514:	408a      	lsls	r2, r1
 8000516:	43d2      	mvns	r2, r2
 8000518:	4611      	mov	r1, r2
 800051a:	4a3f      	ldr	r2, [pc, #252]	; (8000618 <Configuration_EXTI+0x1c4>)
 800051c:	400b      	ands	r3, r1
 800051e:	6093      	str	r3, [r2, #8]
 8000520:	4b3d      	ldr	r3, [pc, #244]	; (8000618 <Configuration_EXTI+0x1c4>)
 8000522:	68db      	ldr	r3, [r3, #12]
 8000524:	687a      	ldr	r2, [r7, #4]
 8000526:	8812      	ldrh	r2, [r2, #0]
 8000528:	4611      	mov	r1, r2
 800052a:	2201      	movs	r2, #1
 800052c:	408a      	lsls	r2, r1
 800052e:	43d2      	mvns	r2, r2
 8000530:	4611      	mov	r1, r2
 8000532:	4a39      	ldr	r2, [pc, #228]	; (8000618 <Configuration_EXTI+0x1c4>)
 8000534:	400b      	ands	r3, r1
 8000536:	60d3      	str	r3, [r2, #12]
 8000538:	687b      	ldr	r3, [r7, #4]
 800053a:	7b1b      	ldrb	r3, [r3, #12]
 800053c:	2b00      	cmp	r3, #0
 800053e:	d10b      	bne.n	8000558 <Configuration_EXTI+0x104>
 8000540:	4b35      	ldr	r3, [pc, #212]	; (8000618 <Configuration_EXTI+0x1c4>)
 8000542:	689b      	ldr	r3, [r3, #8]
 8000544:	687a      	ldr	r2, [r7, #4]
 8000546:	8812      	ldrh	r2, [r2, #0]
 8000548:	4611      	mov	r1, r2
 800054a:	2201      	movs	r2, #1
 800054c:	408a      	lsls	r2, r1
 800054e:	4611      	mov	r1, r2
 8000550:	4a31      	ldr	r2, [pc, #196]	; (8000618 <Configuration_EXTI+0x1c4>)
 8000552:	430b      	orrs	r3, r1
 8000554:	6093      	str	r3, [r2, #8]
 8000556:	e025      	b.n	80005a4 <Configuration_EXTI+0x150>
 8000558:	687b      	ldr	r3, [r7, #4]
 800055a:	7b1b      	ldrb	r3, [r3, #12]
 800055c:	2b01      	cmp	r3, #1
 800055e:	d10b      	bne.n	8000578 <Configuration_EXTI+0x124>
 8000560:	4b2d      	ldr	r3, [pc, #180]	; (8000618 <Configuration_EXTI+0x1c4>)
 8000562:	68db      	ldr	r3, [r3, #12]
 8000564:	687a      	ldr	r2, [r7, #4]
 8000566:	8812      	ldrh	r2, [r2, #0]
 8000568:	4611      	mov	r1, r2
 800056a:	2201      	movs	r2, #1
 800056c:	408a      	lsls	r2, r1
 800056e:	4611      	mov	r1, r2
 8000570:	4a29      	ldr	r2, [pc, #164]	; (8000618 <Configuration_EXTI+0x1c4>)
 8000572:	430b      	orrs	r3, r1
 8000574:	60d3      	str	r3, [r2, #12]
 8000576:	e015      	b.n	80005a4 <Configuration_EXTI+0x150>
 8000578:	4b27      	ldr	r3, [pc, #156]	; (8000618 <Configuration_EXTI+0x1c4>)
 800057a:	689b      	ldr	r3, [r3, #8]
 800057c:	687a      	ldr	r2, [r7, #4]
 800057e:	8812      	ldrh	r2, [r2, #0]
 8000580:	4611      	mov	r1, r2
 8000582:	2201      	movs	r2, #1
 8000584:	408a      	lsls	r2, r1
 8000586:	4611      	mov	r1, r2
 8000588:	4a23      	ldr	r2, [pc, #140]	; (8000618 <Configuration_EXTI+0x1c4>)
 800058a:	430b      	orrs	r3, r1
 800058c:	6093      	str	r3, [r2, #8]
 800058e:	4b22      	ldr	r3, [pc, #136]	; (8000618 <Configuration_EXTI+0x1c4>)
 8000590:	68db      	ldr	r3, [r3, #12]
 8000592:	687a      	ldr	r2, [r7, #4]
 8000594:	8812      	ldrh	r2, [r2, #0]
 8000596:	4611      	mov	r1, r2
 8000598:	2201      	movs	r2, #1
 800059a:	408a      	lsls	r2, r1
 800059c:	4611      	mov	r1, r2
 800059e:	4a1e      	ldr	r2, [pc, #120]	; (8000618 <Configuration_EXTI+0x1c4>)
 80005a0:	430b      	orrs	r3, r1
 80005a2:	60d3      	str	r3, [r2, #12]
 80005a4:	687b      	ldr	r3, [r7, #4]
 80005a6:	881b      	ldrh	r3, [r3, #0]
 80005a8:	4619      	mov	r1, r3
 80005aa:	687b      	ldr	r3, [r7, #4]
 80005ac:	691b      	ldr	r3, [r3, #16]
 80005ae:	4a1b      	ldr	r2, [pc, #108]	; (800061c <Configuration_EXTI+0x1c8>)
 80005b0:	f842 3021 	str.w	r3, [r2, r1, lsl #2]
 80005b4:	687b      	ldr	r3, [r7, #4]
 80005b6:	7b5b      	ldrb	r3, [r3, #13]
 80005b8:	2b01      	cmp	r3, #1
 80005ba:	d110      	bne.n	80005de <Configuration_EXTI+0x18a>
 80005bc:	4b16      	ldr	r3, [pc, #88]	; (8000618 <Configuration_EXTI+0x1c4>)
 80005be:	681b      	ldr	r3, [r3, #0]
 80005c0:	687a      	ldr	r2, [r7, #4]
 80005c2:	8812      	ldrh	r2, [r2, #0]
 80005c4:	4611      	mov	r1, r2
 80005c6:	2201      	movs	r2, #1
 80005c8:	408a      	lsls	r2, r1
 80005ca:	4611      	mov	r1, r2
 80005cc:	4a12      	ldr	r2, [pc, #72]	; (8000618 <Configuration_EXTI+0x1c4>)
 80005ce:	430b      	orrs	r3, r1
 80005d0:	6013      	str	r3, [r2, #0]
 80005d2:	687b      	ldr	r3, [r7, #4]
 80005d4:	881b      	ldrh	r3, [r3, #0]
 80005d6:	4618      	mov	r0, r3
 80005d8:	f7ff fe70 	bl	80002bc <Enable_NVIC>
 80005dc:	e010      	b.n	8000600 <Configuration_EXTI+0x1ac>
 80005de:	4b0e      	ldr	r3, [pc, #56]	; (8000618 <Configuration_EXTI+0x1c4>)
 80005e0:	681b      	ldr	r3, [r3, #0]
 80005e2:	687a      	ldr	r2, [r7, #4]
 80005e4:	8812      	ldrh	r2, [r2, #0]
 80005e6:	4611      	mov	r1, r2
 80005e8:	2201      	movs	r2, #1
 80005ea:	408a      	lsls	r2, r1
 80005ec:	43d2      	mvns	r2, r2
 80005ee:	4611      	mov	r1, r2
 80005f0:	4a09      	ldr	r2, [pc, #36]	; (8000618 <Configuration_EXTI+0x1c4>)
 80005f2:	400b      	ands	r3, r1
 80005f4:	6013      	str	r3, [r2, #0]
 80005f6:	687b      	ldr	r3, [r7, #4]
 80005f8:	881b      	ldrh	r3, [r3, #0]
 80005fa:	4618      	mov	r0, r3
 80005fc:	f7ff fec4 	bl	8000388 <Disable_NVIC>
 8000600:	bf00      	nop
 8000602:	3710      	adds	r7, #16
 8000604:	46bd      	mov	sp, r7
 8000606:	bd80      	pop	{r7, pc}
 8000608:	40010000 	andmi	r0, r1, r0
 800060c:	40010800 	andmi	r0, r1, r0, lsl #16
 8000610:	40010c00 	andmi	r0, r1, r0, lsl #24
 8000614:	40011000 	andmi	r1, r1, r0
 8000618:	40010400 	andmi	r0, r1, r0, lsl #8
 800061c:	20000068 	andcs	r0, r0, r8, rrx

08000620 <MCAL_EXTI_GPIO_Init>:
 8000620:	b580      	push	{r7, lr}
 8000622:	b082      	sub	sp, #8
 8000624:	af00      	add	r7, sp, #0
 8000626:	6078      	str	r0, [r7, #4]
 8000628:	6878      	ldr	r0, [r7, #4]
 800062a:	f7ff ff13 	bl	8000454 <Configuration_EXTI>
 800062e:	bf00      	nop
 8000630:	3708      	adds	r7, #8
 8000632:	46bd      	mov	sp, r7
 8000634:	bd80      	pop	{r7, pc}
	...

08000638 <EXTI0_IRQHandler>:
 8000638:	b580      	push	{r7, lr}
 800063a:	af00      	add	r7, sp, #0
 800063c:	4b05      	ldr	r3, [pc, #20]	; (8000654 <EXTI0_IRQHandler+0x1c>)
 800063e:	695b      	ldr	r3, [r3, #20]
 8000640:	4a04      	ldr	r2, [pc, #16]	; (8000654 <EXTI0_IRQHandler+0x1c>)
 8000642:	f043 0301 	orr.w	r3, r3, #1
 8000646:	6153      	str	r3, [r2, #20]
 8000648:	4b03      	ldr	r3, [pc, #12]	; (8000658 <EXTI0_IRQHandler+0x20>)
 800064a:	681b      	ldr	r3, [r3, #0]
 800064c:	4798      	blx	r3
 800064e:	bf00      	nop
 8000650:	bd80      	pop	{r7, pc}
 8000652:	bf00      	nop
 8000654:	40010400 	andmi	r0, r1, r0, lsl #8
 8000658:	20000068 	andcs	r0, r0, r8, rrx

0800065c <EXTI1_IRQHandler>:
 800065c:	b580      	push	{r7, lr}
 800065e:	af00      	add	r7, sp, #0
 8000660:	4b05      	ldr	r3, [pc, #20]	; (8000678 <EXTI1_IRQHandler+0x1c>)
 8000662:	695b      	ldr	r3, [r3, #20]
 8000664:	4a04      	ldr	r2, [pc, #16]	; (8000678 <EXTI1_IRQHandler+0x1c>)
 8000666:	f043 0302 	orr.w	r3, r3, #2
 800066a:	6153      	str	r3, [r2, #20]
 800066c:	4b03      	ldr	r3, [pc, #12]	; (800067c <EXTI1_IRQHandler+0x20>)
 800066e:	685b      	ldr	r3, [r3, #4]
 8000670:	4798      	blx	r3
 8000672:	bf00      	nop
 8000674:	bd80      	pop	{r7, pc}
 8000676:	bf00      	nop
 8000678:	40010400 	andmi	r0, r1, r0, lsl #8
 800067c:	20000068 	andcs	r0, r0, r8, rrx

08000680 <EXTI2_IRQHandler>:
 8000680:	b580      	push	{r7, lr}
 8000682:	af00      	add	r7, sp, #0
 8000684:	4b05      	ldr	r3, [pc, #20]	; (800069c <EXTI2_IRQHandler+0x1c>)
 8000686:	695b      	ldr	r3, [r3, #20]
 8000688:	4a04      	ldr	r2, [pc, #16]	; (800069c <EXTI2_IRQHandler+0x1c>)
 800068a:	f043 0304 	orr.w	r3, r3, #4
 800068e:	6153      	str	r3, [r2, #20]
 8000690:	4b03      	ldr	r3, [pc, #12]	; (80006a0 <EXTI2_IRQHandler+0x20>)
 8000692:	689b      	ldr	r3, [r3, #8]
 8000694:	4798      	blx	r3
 8000696:	bf00      	nop
 8000698:	bd80      	pop	{r7, pc}
 800069a:	bf00      	nop
 800069c:	40010400 	andmi	r0, r1, r0, lsl #8
 80006a0:	20000068 	andcs	r0, r0, r8, rrx

080006a4 <EXTI3_IRQHandler>:
 80006a4:	b580      	push	{r7, lr}
 80006a6:	af00      	add	r7, sp, #0
 80006a8:	4b05      	ldr	r3, [pc, #20]	; (80006c0 <EXTI3_IRQHandler+0x1c>)
 80006aa:	695b      	ldr	r3, [r3, #20]
 80006ac:	4a04      	ldr	r2, [pc, #16]	; (80006c0 <EXTI3_IRQHandler+0x1c>)
 80006ae:	f043 0308 	orr.w	r3, r3, #8
 80006b2:	6153      	str	r3, [r2, #20]
 80006b4:	4b03      	ldr	r3, [pc, #12]	; (80006c4 <EXTI3_IRQHandler+0x20>)
 80006b6:	68db      	ldr	r3, [r3, #12]
 80006b8:	4798      	blx	r3
 80006ba:	bf00      	nop
 80006bc:	bd80      	pop	{r7, pc}
 80006be:	bf00      	nop
 80006c0:	40010400 	andmi	r0, r1, r0, lsl #8
 80006c4:	20000068 	andcs	r0, r0, r8, rrx

080006c8 <EXTI4_IRQHandler>:
 80006c8:	b580      	push	{r7, lr}
 80006ca:	af00      	add	r7, sp, #0
 80006cc:	4b05      	ldr	r3, [pc, #20]	; (80006e4 <EXTI4_IRQHandler+0x1c>)
 80006ce:	695b      	ldr	r3, [r3, #20]
 80006d0:	4a04      	ldr	r2, [pc, #16]	; (80006e4 <EXTI4_IRQHandler+0x1c>)
 80006d2:	f043 0310 	orr.w	r3, r3, #16
 80006d6:	6153      	str	r3, [r2, #20]
 80006d8:	4b03      	ldr	r3, [pc, #12]	; (80006e8 <EXTI4_IRQHandler+0x20>)
 80006da:	691b      	ldr	r3, [r3, #16]
 80006dc:	4798      	blx	r3
 80006de:	bf00      	nop
 80006e0:	bd80      	pop	{r7, pc}
 80006e2:	bf00      	nop
 80006e4:	40010400 	andmi	r0, r1, r0, lsl #8
 80006e8:	20000068 	andcs	r0, r0, r8, rrx

080006ec <EXTI9_5_IRQHandler>:
 80006ec:	b580      	push	{r7, lr}
 80006ee:	af00      	add	r7, sp, #0
 80006f0:	4b26      	ldr	r3, [pc, #152]	; (800078c <EXTI9_5_IRQHandler+0xa0>)
 80006f2:	695b      	ldr	r3, [r3, #20]
 80006f4:	f003 0320 	and.w	r3, r3, #32
 80006f8:	2b00      	cmp	r3, #0
 80006fa:	d008      	beq.n	800070e <EXTI9_5_IRQHandler+0x22>
 80006fc:	4b23      	ldr	r3, [pc, #140]	; (800078c <EXTI9_5_IRQHandler+0xa0>)
 80006fe:	695b      	ldr	r3, [r3, #20]
 8000700:	4a22      	ldr	r2, [pc, #136]	; (800078c <EXTI9_5_IRQHandler+0xa0>)
 8000702:	f043 0320 	orr.w	r3, r3, #32
 8000706:	6153      	str	r3, [r2, #20]
 8000708:	4b21      	ldr	r3, [pc, #132]	; (8000790 <EXTI9_5_IRQHandler+0xa4>)
 800070a:	695b      	ldr	r3, [r3, #20]
 800070c:	4798      	blx	r3
 800070e:	4b1f      	ldr	r3, [pc, #124]	; (800078c <EXTI9_5_IRQHandler+0xa0>)
 8000710:	695b      	ldr	r3, [r3, #20]
 8000712:	f003 0340 	and.w	r3, r3, #64	; 0x40
 8000716:	2b00      	cmp	r3, #0
 8000718:	d008      	beq.n	800072c <EXTI9_5_IRQHandler+0x40>
 800071a:	4b1c      	ldr	r3, [pc, #112]	; (800078c <EXTI9_5_IRQHandler+0xa0>)
 800071c:	695b      	ldr	r3, [r3, #20]
 800071e:	4a1b      	ldr	r2, [pc, #108]	; (800078c <EXTI9_5_IRQHandler+0xa0>)
 8000720:	f043 0340 	orr.w	r3, r3, #64	; 0x40
 8000724:	6153      	str	r3, [r2, #20]
 8000726:	4b1a      	ldr	r3, [pc, #104]	; (8000790 <EXTI9_5_IRQHandler+0xa4>)
 8000728:	699b      	ldr	r3, [r3, #24]
 800072a:	4798      	blx	r3
 800072c:	4b17      	ldr	r3, [pc, #92]	; (800078c <EXTI9_5_IRQHandler+0xa0>)
 800072e:	695b      	ldr	r3, [r3, #20]
 8000730:	f003 0380 	and.w	r3, r3, #128	; 0x80
 8000734:	2b00      	cmp	r3, #0
 8000736:	d008      	beq.n	800074a <EXTI9_5_IRQHandler+0x5e>
 8000738:	4b14      	ldr	r3, [pc, #80]	; (800078c <EXTI9_5_IRQHandler+0xa0>)
 800073a:	695b      	ldr	r3, [r3, #20]
 800073c:	4a13      	ldr	r2, [pc, #76]	; (800078c <EXTI9_5_IRQHandler+0xa0>)
 800073e:	f043 0380 	orr.w	r3, r3, #128	; 0x80
 8000742:	6153      	str	r3, [r2, #20]
 8000744:	4b12      	ldr	r3, [pc, #72]	; (8000790 <EXTI9_5_IRQHandler+0xa4>)
 8000746:	69db      	ldr	r3, [r3, #28]
 8000748:	4798      	blx	r3
 800074a:	4b10      	ldr	r3, [pc, #64]	; (800078c <EXTI9_5_IRQHandler+0xa0>)
 800074c:	695b      	ldr	r3, [r3, #20]
 800074e:	f403 7380 	and.w	r3, r3, #256	; 0x100
 8000752:	2b00      	cmp	r3, #0
 8000754:	d008      	beq.n	8000768 <EXTI9_5_IRQHandler+0x7c>
 8000756:	4b0d      	ldr	r3, [pc, #52]	; (800078c <EXTI9_5_IRQHandler+0xa0>)
 8000758:	695b      	ldr	r3, [r3, #20]
 800075a:	4a0c      	ldr	r2, [pc, #48]	; (800078c <EXTI9_5_IRQHandler+0xa0>)
 800075c:	f443 7380 	orr.w	r3, r3, #256	; 0x100
 8000760:	6153      	str	r3, [r2, #20]
 8000762:	4b0b      	ldr	r3, [pc, #44]	; (8000790 <EXTI9_5_IRQHandler+0xa4>)
 8000764:	6a1b      	ldr	r3, [r3, #32]
 8000766:	4798      	blx	r3
 8000768:	4b08      	ldr	r3, [pc, #32]	; (800078c <EXTI9_5_IRQHandler+0xa0>)
 800076a:	695b      	ldr	r3, [r3, #20]
 800076c:	f403 7300 	and.w	r3, r3, #512	; 0x200
 8000770:	2b00      	cmp	r3, #0
 8000772:	d008      	beq.n	8000786 <EXTI9_5_IRQHandler+0x9a>
 8000774:	4b05      	ldr	r3, [pc, #20]	; (800078c <EXTI9_5_IRQHandler+0xa0>)
 8000776:	695b      	ldr	r3, [r3, #20]
 8000778:	4a04      	ldr	r2, [pc, #16]	; (800078c <EXTI9_5_IRQHandler+0xa0>)
 800077a:	f443 7300 	orr.w	r3, r3, #512	; 0x200
 800077e:	6153      	str	r3, [r2, #20]
 8000780:	4b03      	ldr	r3, [pc, #12]	; (8000790 <EXTI9_5_IRQHandler+0xa4>)
 8000782:	6a5b      	ldr	r3, [r3, #36]	; 0x24
 8000784:	4798      	blx	r3
 8000786:	bf00      	nop
 8000788:	bd80      	pop	{r7, pc}
 800078a:	bf00      	nop
 800078c:	40010400 	andmi	r0, r1, r0, lsl #8
 8000790:	20000068 	andcs	r0, r0, r8, rrx

08000794 <EXTI15_10_IRQHandler>:
 8000794:	b580      	push	{r7, lr}
 8000796:	af00      	add	r7, sp, #0
 8000798:	4b2d      	ldr	r3, [pc, #180]	; (8000850 <EXTI15_10_IRQHandler+0xbc>)
 800079a:	695b      	ldr	r3, [r3, #20]
 800079c:	f403 6380 	and.w	r3, r3, #1024	; 0x400
 80007a0:	2b00      	cmp	r3, #0
 80007a2:	d008      	beq.n	80007b6 <EXTI15_10_IRQHandler+0x22>
 80007a4:	4b2a      	ldr	r3, [pc, #168]	; (8000850 <EXTI15_10_IRQHandler+0xbc>)
 80007a6:	695b      	ldr	r3, [r3, #20]
 80007a8:	4a29      	ldr	r2, [pc, #164]	; (8000850 <EXTI15_10_IRQHandler+0xbc>)
 80007aa:	f443 6380 	orr.w	r3, r3, #1024	; 0x400
 80007ae:	6153      	str	r3, [r2, #20]
 80007b0:	4b28      	ldr	r3, [pc, #160]	; (8000854 <EXTI15_10_IRQHandler+0xc0>)
 80007b2:	6a9b      	ldr	r3, [r3, #40]	; 0x28
 80007b4:	4798      	blx	r3
 80007b6:	4b26      	ldr	r3, [pc, #152]	; (8000850 <EXTI15_10_IRQHandler+0xbc>)
 80007b8:	695b      	ldr	r3, [r3, #20]
 80007ba:	f403 6300 	and.w	r3, r3, #2048	; 0x800
 80007be:	2b00      	cmp	r3, #0
 80007c0:	d008      	beq.n	80007d4 <EXTI15_10_IRQHandler+0x40>
 80007c2:	4b23      	ldr	r3, [pc, #140]	; (8000850 <EXTI15_10_IRQHandler+0xbc>)
 80007c4:	695b      	ldr	r3, [r3, #20]
 80007c6:	4a22      	ldr	r2, [pc, #136]	; (8000850 <EXTI15_10_IRQHandler+0xbc>)
 80007c8:	f443 6300 	orr.w	r3, r3, #2048	; 0x800
 80007cc:	6153      	str	r3, [r2, #20]
 80007ce:	4b21      	ldr	r3, [pc, #132]	; (8000854 <EXTI15_10_IRQHandler+0xc0>)
 80007d0:	6adb      	ldr	r3, [r3, #44]	; 0x2c
 80007d2:	4798      	blx	r3
 80007d4:	4b1e      	ldr	r3, [pc, #120]	; (8000850 <EXTI15_10_IRQHandler+0xbc>)
 80007d6:	695b      	ldr	r3, [r3, #20]
 80007d8:	f403 5380 	and.w	r3, r3, #4096	; 0x1000
 80007dc:	2b00      	cmp	r3, #0
 80007de:	d008      	beq.n	80007f2 <EXTI15_10_IRQHandler+0x5e>
 80007e0:	4b1b      	ldr	r3, [pc, #108]	; (8000850 <EXTI15_10_IRQHandler+0xbc>)
 80007e2:	695b      	ldr	r3, [r3, #20]
 80007e4:	4a1a      	ldr	r2, [pc, #104]	; (8000850 <EXTI15_10_IRQHandler+0xbc>)
 80007e6:	f443 5380 	orr.w	r3, r3, #4096	; 0x1000
 80007ea:	6153      	str	r3, [r2, #20]
 80007ec:	4b19      	ldr	r3, [pc, #100]	; (8000854 <EXTI15_10_IRQHandler+0xc0>)
 80007ee:	6b1b      	ldr	r3, [r3, #48]	; 0x30
 80007f0:	4798      	blx	r3
 80007f2:	4b17      	ldr	r3, [pc, #92]	; (8000850 <EXTI15_10_IRQHandler+0xbc>)
 80007f4:	695b      	ldr	r3, [r3, #20]
 80007f6:	f403 5300 	and.w	r3, r3, #8192	; 0x2000
 80007fa:	2b00      	cmp	r3, #0
 80007fc:	d008      	beq.n	8000810 <EXTI15_10_IRQHandler+0x7c>
 80007fe:	4b14      	ldr	r3, [pc, #80]	; (8000850 <EXTI15_10_IRQHandler+0xbc>)
 8000800:	695b      	ldr	r3, [r3, #20]
 8000802:	4a13      	ldr	r2, [pc, #76]	; (8000850 <EXTI15_10_IRQHandler+0xbc>)
 8000804:	f443 5300 	orr.w	r3, r3, #8192	; 0x2000
 8000808:	6153      	str	r3, [r2, #20]
 800080a:	4b12      	ldr	r3, [pc, #72]	; (8000854 <EXTI15_10_IRQHandler+0xc0>)
 800080c:	6b5b      	ldr	r3, [r3, #52]	; 0x34
 800080e:	4798      	blx	r3
 8000810:	4b0f      	ldr	r3, [pc, #60]	; (8000850 <EXTI15_10_IRQHandler+0xbc>)
 8000812:	695b      	ldr	r3, [r3, #20]
 8000814:	f403 4380 	and.w	r3, r3, #16384	; 0x4000
 8000818:	2b00      	cmp	r3, #0
 800081a:	d008      	beq.n	800082e <EXTI15_10_IRQHandler+0x9a>
 800081c:	4b0c      	ldr	r3, [pc, #48]	; (8000850 <EXTI15_10_IRQHandler+0xbc>)
 800081e:	695b      	ldr	r3, [r3, #20]
 8000820:	4a0b      	ldr	r2, [pc, #44]	; (8000850 <EXTI15_10_IRQHandler+0xbc>)
 8000822:	f443 4380 	orr.w	r3, r3, #16384	; 0x4000
 8000826:	6153      	str	r3, [r2, #20]
 8000828:	4b0a      	ldr	r3, [pc, #40]	; (8000854 <EXTI15_10_IRQHandler+0xc0>)
 800082a:	6b9b      	ldr	r3, [r3, #56]	; 0x38
 800082c:	4798      	blx	r3
 800082e:	4b08      	ldr	r3, [pc, #32]	; (8000850 <EXTI15_10_IRQHandler+0xbc>)
 8000830:	695b      	ldr	r3, [r3, #20]
 8000832:	f403 4300 	and.w	r3, r3, #32768	; 0x8000
 8000836:	2b00      	cmp	r3, #0
 8000838:	d008      	beq.n	800084c <EXTI15_10_IRQHandler+0xb8>
 800083a:	4b05      	ldr	r3, [pc, #20]	; (8000850 <EXTI15_10_IRQHandler+0xbc>)
 800083c:	695b      	ldr	r3, [r3, #20]
 800083e:	4a04      	ldr	r2, [pc, #16]	; (8000850 <EXTI15_10_IRQHandler+0xbc>)
 8000840:	f443 4300 	orr.w	r3, r3, #32768	; 0x8000
 8000844:	6153      	str	r3, [r2, #20]
 8000846:	4b03      	ldr	r3, [pc, #12]	; (8000854 <EXTI15_10_IRQHandler+0xc0>)
 8000848:	6bdb      	ldr	r3, [r3, #60]	; 0x3c
 800084a:	4798      	blx	r3
 800084c:	bf00      	nop
 800084e:	bd80      	pop	{r7, pc}
 8000850:	40010400 	andmi	r0, r1, r0, lsl #8
 8000854:	20000068 	andcs	r0, r0, r8, rrx

08000858 <get_position>:
 8000858:	b480      	push	{r7}
 800085a:	b083      	sub	sp, #12
 800085c:	af00      	add	r7, sp, #0
 800085e:	4603      	mov	r3, r0
 8000860:	80fb      	strh	r3, [r7, #6]
 8000862:	88fb      	ldrh	r3, [r7, #6]
 8000864:	2b80      	cmp	r3, #128	; 0x80
 8000866:	d042      	beq.n	80008ee <get_position+0x96>
 8000868:	2b80      	cmp	r3, #128	; 0x80
 800086a:	dc11      	bgt.n	8000890 <get_position+0x38>
 800086c:	2b08      	cmp	r3, #8
 800086e:	d036      	beq.n	80008de <get_position+0x86>
 8000870:	2b08      	cmp	r3, #8
 8000872:	dc06      	bgt.n	8000882 <get_position+0x2a>
 8000874:	2b02      	cmp	r3, #2
 8000876:	d02e      	beq.n	80008d6 <get_position+0x7e>
 8000878:	2b04      	cmp	r3, #4
 800087a:	d02e      	beq.n	80008da <get_position+0x82>
 800087c:	2b01      	cmp	r3, #1
 800087e:	d028      	beq.n	80008d2 <get_position+0x7a>
 8000880:	e047      	b.n	8000912 <get_position+0xba>
 8000882:	2b20      	cmp	r3, #32
 8000884:	d02f      	beq.n	80008e6 <get_position+0x8e>
 8000886:	2b40      	cmp	r3, #64	; 0x40
 8000888:	d02f      	beq.n	80008ea <get_position+0x92>
 800088a:	2b10      	cmp	r3, #16
 800088c:	d029      	beq.n	80008e2 <get_position+0x8a>
 800088e:	e040      	b.n	8000912 <get_position+0xba>
 8000890:	f5b3 6f00 	cmp.w	r3, #2048	; 0x800
 8000894:	d033      	beq.n	80008fe <get_position+0xa6>
 8000896:	f5b3 6f00 	cmp.w	r3, #2048	; 0x800
 800089a:	dc09      	bgt.n	80008b0 <get_position+0x58>
 800089c:	f5b3 7f00 	cmp.w	r3, #512	; 0x200
 80008a0:	d029      	beq.n	80008f6 <get_position+0x9e>
 80008a2:	f5b3 6f80 	cmp.w	r3, #1024	; 0x400
 80008a6:	d028      	beq.n	80008fa <get_position+0xa2>
 80008a8:	f5b3 7f80 	cmp.w	r3, #256	; 0x100
 80008ac:	d021      	beq.n	80008f2 <get_position+0x9a>
 80008ae:	e030      	b.n	8000912 <get_position+0xba>
 80008b0:	f5b3 5f00 	cmp.w	r3, #8192	; 0x2000
 80008b4:	d027      	beq.n	8000906 <get_position+0xae>
 80008b6:	f5b3 5f00 	cmp.w	r3, #8192	; 0x2000
 80008ba:	dc03      	bgt.n	80008c4 <get_position+0x6c>
 80008bc:	f5b3 5f80 	cmp.w	r3, #4096	; 0x1000
 80008c0:	d01f      	beq.n	8000902 <get_position+0xaa>
 80008c2:	e026      	b.n	8000912 <get_position+0xba>
 80008c4:	f5b3 4f80 	cmp.w	r3, #16384	; 0x4000
 80008c8:	d01f      	beq.n	800090a <get_position+0xb2>
 80008ca:	f5b3 4f00 	cmp.w	r3, #32768	; 0x8000
 80008ce:	d01e      	beq.n	800090e <get_position+0xb6>
 80008d0:	e01f      	b.n	8000912 <get_position+0xba>
 80008d2:	2300      	movs	r3, #0
 80008d4:	e01e      	b.n	8000914 <get_position+0xbc>
 80008d6:	2304      	movs	r3, #4
 80008d8:	e01c      	b.n	8000914 <get_position+0xbc>
 80008da:	2308      	movs	r3, #8
 80008dc:	e01a      	b.n	8000914 <get_position+0xbc>
 80008de:	230c      	movs	r3, #12
 80008e0:	e018      	b.n	8000914 <get_position+0xbc>
 80008e2:	2310      	movs	r3, #16
 80008e4:	e016      	b.n	8000914 <get_position+0xbc>
 80008e6:	2314      	movs	r3, #20
 80008e8:	e014      	b.n	8000914 <get_position+0xbc>
 80008ea:	2318      	movs	r3, #24
 80008ec:	e012      	b.n	8000914 <get_position+0xbc>
 80008ee:	231c      	movs	r3, #28
 80008f0:	e010      	b.n	8000914 <get_position+0xbc>
 80008f2:	2300      	movs	r3, #0
 80008f4:	e00e      	b.n	8000914 <get_position+0xbc>
 80008f6:	2304      	movs	r3, #4
 80008f8:	e00c      	b.n	8000914 <get_position+0xbc>
 80008fa:	2308      	movs	r3, #8
 80008fc:	e00a      	b.n	8000914 <get_position+0xbc>
 80008fe:	230c      	movs	r3, #12
 8000900:	e008      	b.n	8000914 <get_position+0xbc>
 8000902:	2310      	movs	r3, #16
 8000904:	e006      	b.n	8000914 <get_position+0xbc>
 8000906:	2314      	movs	r3, #20
 8000908:	e004      	b.n	8000914 <get_position+0xbc>
 800090a:	2318      	movs	r3, #24
 800090c:	e002      	b.n	8000914 <get_position+0xbc>
 800090e:	231c      	movs	r3, #28
 8000910:	e000      	b.n	8000914 <get_position+0xbc>
 8000912:	2300      	movs	r3, #0
 8000914:	4618      	mov	r0, r3
 8000916:	370c      	adds	r7, #12
 8000918:	46bd      	mov	sp, r7
 800091a:	bc80      	pop	{r7}
 800091c:	4770      	bx	lr

0800091e <MCAL_GPIO_Init>:
 800091e:	b590      	push	{r4, r7, lr}
 8000920:	b085      	sub	sp, #20
 8000922:	af00      	add	r7, sp, #0
 8000924:	6078      	str	r0, [r7, #4]
 8000926:	6039      	str	r1, [r7, #0]
 8000928:	2300      	movs	r3, #0
 800092a:	60bb      	str	r3, [r7, #8]
 800092c:	2300      	movs	r3, #0
 800092e:	73fb      	strb	r3, [r7, #15]
 8000930:	683b      	ldr	r3, [r7, #0]
 8000932:	881b      	ldrh	r3, [r3, #0]
 8000934:	2bff      	cmp	r3, #255	; 0xff
 8000936:	d801      	bhi.n	800093c <MCAL_GPIO_Init+0x1e>
 8000938:	687b      	ldr	r3, [r7, #4]
 800093a:	e001      	b.n	8000940 <MCAL_GPIO_Init+0x22>
 800093c:	687b      	ldr	r3, [r7, #4]
 800093e:	3304      	adds	r3, #4
 8000940:	60bb      	str	r3, [r7, #8]
 8000942:	683b      	ldr	r3, [r7, #0]
 8000944:	881b      	ldrh	r3, [r3, #0]
 8000946:	4618      	mov	r0, r3
 8000948:	f7ff ff86 	bl	8000858 <get_position>
 800094c:	4603      	mov	r3, r0
 800094e:	461a      	mov	r2, r3
 8000950:	230f      	movs	r3, #15
 8000952:	4093      	lsls	r3, r2
 8000954:	43da      	mvns	r2, r3
 8000956:	68bb      	ldr	r3, [r7, #8]
 8000958:	681b      	ldr	r3, [r3, #0]
 800095a:	401a      	ands	r2, r3
 800095c:	68bb      	ldr	r3, [r7, #8]
 800095e:	601a      	str	r2, [r3, #0]
 8000960:	683b      	ldr	r3, [r7, #0]
 8000962:	789b      	ldrb	r3, [r3, #2]
 8000964:	2b07      	cmp	r3, #7
 8000966:	d00b      	beq.n	8000980 <MCAL_GPIO_Init+0x62>
 8000968:	683b      	ldr	r3, [r7, #0]
 800096a:	789b      	ldrb	r3, [r3, #2]
 800096c:	2b06      	cmp	r3, #6
 800096e:	d007      	beq.n	8000980 <MCAL_GPIO_Init+0x62>
 8000970:	683b      	ldr	r3, [r7, #0]
 8000972:	789b      	ldrb	r3, [r3, #2]
 8000974:	2b05      	cmp	r3, #5
 8000976:	d003      	beq.n	8000980 <MCAL_GPIO_Init+0x62>
 8000978:	683b      	ldr	r3, [r7, #0]
 800097a:	789b      	ldrb	r3, [r3, #2]
 800097c:	2b04      	cmp	r3, #4
 800097e:	d10e      	bne.n	800099e <MCAL_GPIO_Init+0x80>
 8000980:	683b      	ldr	r3, [r7, #0]
 8000982:	789b      	ldrb	r3, [r3, #2]
 8000984:	3b04      	subs	r3, #4
 8000986:	009b      	lsls	r3, r3, #2
 8000988:	b25a      	sxtb	r2, r3
 800098a:	683b      	ldr	r3, [r7, #0]
 800098c:	78db      	ldrb	r3, [r3, #3]
 800098e:	b25b      	sxtb	r3, r3
 8000990:	4313      	orrs	r3, r2
 8000992:	b25b      	sxtb	r3, r3
 8000994:	b2db      	uxtb	r3, r3
 8000996:	f003 030f 	and.w	r3, r3, #15
 800099a:	73fb      	strb	r3, [r7, #15]
 800099c:	e02c      	b.n	80009f8 <MCAL_GPIO_Init+0xda>
 800099e:	683b      	ldr	r3, [r7, #0]
 80009a0:	789b      	ldrb	r3, [r3, #2]
 80009a2:	2b01      	cmp	r3, #1
 80009a4:	d003      	beq.n	80009ae <MCAL_GPIO_Init+0x90>
 80009a6:	683b      	ldr	r3, [r7, #0]
 80009a8:	789b      	ldrb	r3, [r3, #2]
 80009aa:	2b00      	cmp	r3, #0
 80009ac:	d107      	bne.n	80009be <MCAL_GPIO_Init+0xa0>
 80009ae:	683b      	ldr	r3, [r7, #0]
 80009b0:	789b      	ldrb	r3, [r3, #2]
 80009b2:	009b      	lsls	r3, r3, #2
 80009b4:	b2db      	uxtb	r3, r3
 80009b6:	f003 030f 	and.w	r3, r3, #15
 80009ba:	73fb      	strb	r3, [r7, #15]
 80009bc:	e01c      	b.n	80009f8 <MCAL_GPIO_Init+0xda>
 80009be:	683b      	ldr	r3, [r7, #0]
 80009c0:	789b      	ldrb	r3, [r3, #2]
 80009c2:	2b08      	cmp	r3, #8
 80009c4:	d102      	bne.n	80009cc <MCAL_GPIO_Init+0xae>
 80009c6:	2304      	movs	r3, #4
 80009c8:	73fb      	strb	r3, [r7, #15]
 80009ca:	e015      	b.n	80009f8 <MCAL_GPIO_Init+0xda>
 80009cc:	2308      	movs	r3, #8
 80009ce:	73fb      	strb	r3, [r7, #15]
 80009d0:	683b      	ldr	r3, [r7, #0]
 80009d2:	789b      	ldrb	r3, [r3, #2]
 80009d4:	2b02      	cmp	r3, #2
 80009d6:	d107      	bne.n	80009e8 <MCAL_GPIO_Init+0xca>
 80009d8:	687b      	ldr	r3, [r7, #4]
 80009da:	68db      	ldr	r3, [r3, #12]
 80009dc:	683a      	ldr	r2, [r7, #0]
 80009de:	8812      	ldrh	r2, [r2, #0]
 80009e0:	431a      	orrs	r2, r3
 80009e2:	687b      	ldr	r3, [r7, #4]
 80009e4:	60da      	str	r2, [r3, #12]
 80009e6:	e007      	b.n	80009f8 <MCAL_GPIO_Init+0xda>
 80009e8:	687b      	ldr	r3, [r7, #4]
 80009ea:	68db      	ldr	r3, [r3, #12]
 80009ec:	683a      	ldr	r2, [r7, #0]
 80009ee:	8812      	ldrh	r2, [r2, #0]
 80009f0:	43d2      	mvns	r2, r2
 80009f2:	401a      	ands	r2, r3
 80009f4:	687b      	ldr	r3, [r7, #4]
 80009f6:	60da      	str	r2, [r3, #12]
 80009f8:	7bfc      	ldrb	r4, [r7, #15]
 80009fa:	683b      	ldr	r3, [r7, #0]
 80009fc:	881b      	ldrh	r3, [r3, #0]
 80009fe:	4618      	mov	r0, r3
 8000a00:	f7ff ff2a 	bl	8000858 <get_position>
 8000a04:	4603      	mov	r3, r0
 8000a06:	fa04 f203 	lsl.w	r2, r4, r3
 8000a0a:	68bb      	ldr	r3, [r7, #8]
 8000a0c:	681b      	ldr	r3, [r3, #0]
 8000a0e:	431a      	orrs	r2, r3
 8000a10:	68bb      	ldr	r3, [r7, #8]
 8000a12:	601a      	str	r2, [r3, #0]
 8000a14:	bf00      	nop
 8000a16:	3714      	adds	r7, #20
 8000a18:	46bd      	mov	sp, r7
 8000a1a:	bd90      	pop	{r4, r7, pc}

08000a1c <Slave_Status>:
 8000a1c:	b580      	push	{r7, lr}
 8000a1e:	b084      	sub	sp, #16
 8000a20:	af00      	add	r7, sp, #0
 8000a22:	6078      	str	r0, [r7, #4]
 8000a24:	460b      	mov	r3, r1
 8000a26:	70fb      	strb	r3, [r7, #3]
 8000a28:	687b      	ldr	r3, [r7, #4]
 8000a2a:	4a30      	ldr	r2, [pc, #192]	; (8000aec <Slave_Status+0xd0>)
 8000a2c:	4293      	cmp	r3, r2
 8000a2e:	bf14      	ite	ne
 8000a30:	2301      	movne	r3, #1
 8000a32:	2300      	moveq	r3, #0
 8000a34:	b2db      	uxtb	r3, r3
 8000a36:	73fb      	strb	r3, [r7, #15]
 8000a38:	78fb      	ldrb	r3, [r7, #3]
 8000a3a:	2b03      	cmp	r3, #3
 8000a3c:	d851      	bhi.n	8000ae2 <Slave_Status+0xc6>
 8000a3e:	a201      	add	r2, pc, #4	; (adr r2, 8000a44 <Slave_Status+0x28>)
 8000a40:	f852 f023 	ldr.w	pc, [r2, r3, lsl #2]
 8000a44:	08000a55 	stmdaeq	r0, {r0, r2, r4, r6, r9, fp}
 8000a48:	08000a79 	stmdaeq	r0, {r0, r3, r4, r5, r6, r9, fp}
 8000a4c:	08000a91 	stmdaeq	r0, {r0, r4, r7, r9, fp}
 8000a50:	08000ab5 	stmdaeq	r0, {r0, r2, r4, r5, r7, r9, fp}
 8000a54:	687b      	ldr	r3, [r7, #4]
 8000a56:	699b      	ldr	r3, [r3, #24]
 8000a58:	f003 0304 	and.w	r3, r3, #4
 8000a5c:	2b00      	cmp	r3, #0
 8000a5e:	d03b      	beq.n	8000ad8 <Slave_Status+0xbc>
 8000a60:	7bfa      	ldrb	r2, [r7, #15]
 8000a62:	4923      	ldr	r1, [pc, #140]	; (8000af0 <Slave_Status+0xd4>)
 8000a64:	4613      	mov	r3, r2
 8000a66:	00db      	lsls	r3, r3, #3
 8000a68:	1a9b      	subs	r3, r3, r2
 8000a6a:	009b      	lsls	r3, r3, #2
 8000a6c:	440b      	add	r3, r1
 8000a6e:	3318      	adds	r3, #24
 8000a70:	681b      	ldr	r3, [r3, #0]
 8000a72:	2000      	movs	r0, #0
 8000a74:	4798      	blx	r3
 8000a76:	e02f      	b.n	8000ad8 <Slave_Status+0xbc>
 8000a78:	7bfa      	ldrb	r2, [r7, #15]
 8000a7a:	491d      	ldr	r1, [pc, #116]	; (8000af0 <Slave_Status+0xd4>)
 8000a7c:	4613      	mov	r3, r2
 8000a7e:	00db      	lsls	r3, r3, #3
 8000a80:	1a9b      	subs	r3, r3, r2
 8000a82:	009b      	lsls	r3, r3, #2
 8000a84:	440b      	add	r3, r1
 8000a86:	3318      	adds	r3, #24
 8000a88:	681b      	ldr	r3, [r3, #0]
 8000a8a:	2001      	movs	r0, #1
 8000a8c:	4798      	blx	r3
 8000a8e:	e028      	b.n	8000ae2 <Slave_Status+0xc6>
 8000a90:	687b      	ldr	r3, [r7, #4]
 8000a92:	699b      	ldr	r3, [r3, #24]
 8000a94:	f003 0304 	and.w	r3, r3, #4
 8000a98:	2b00      	cmp	r3, #0
 8000a9a:	d01f      	beq.n	8000adc <Slave_Status+0xc0>
 8000a9c:	7bfa      	ldrb	r2, [r7, #15]
 8000a9e:	4914      	ldr	r1, [pc, #80]	; (8000af0 <Slave_Status+0xd4>)
 8000aa0:	4613      	mov	r3, r2
 8000aa2:	00db      	lsls	r3, r3, #3
 8000aa4:	1a9b      	subs	r3, r3, r2
 8000aa6:	009b      	lsls	r3, r3, #2
 8000aa8:	440b      	add	r3, r1
 8000aaa:	3318      	adds	r3, #24
 8000aac:	681b      	ldr	r3, [r3, #0]
 8000aae:	2002      	movs	r0, #2
 8000ab0:	4798      	blx	r3
 8000ab2:	e013      	b.n	8000adc <Slave_Status+0xc0>
 8000ab4:	687b      	ldr	r3, [r7, #4]
 8000ab6:	699b      	ldr	r3, [r3, #24]
 8000ab8:	f003 0304 	and.w	r3, r3, #4
 8000abc:	2b00      	cmp	r3, #0
 8000abe:	d10f      	bne.n	8000ae0 <Slave_Status+0xc4>
 8000ac0:	7bfa      	ldrb	r2, [r7, #15]
 8000ac2:	490b      	ldr	r1, [pc, #44]	; (8000af0 <Slave_Status+0xd4>)
 8000ac4:	4613      	mov	r3, r2
 8000ac6:	00db      	lsls	r3, r3, #3
 8000ac8:	1a9b      	subs	r3, r3, r2
 8000aca:	009b      	lsls	r3, r3, #2
 8000acc:	440b      	add	r3, r1
 8000ace:	3318      	adds	r3, #24
 8000ad0:	681b      	ldr	r3, [r3, #0]
 8000ad2:	2003      	movs	r0, #3
 8000ad4:	4798      	blx	r3
 8000ad6:	e003      	b.n	8000ae0 <Slave_Status+0xc4>
 8000ad8:	bf00      	nop
 8000ada:	e002      	b.n	8000ae2 <Slave_Status+0xc6>
 8000adc:	bf00      	nop
 8000ade:	e000      	b.n	8000ae2 <Slave_Status+0xc6>
 8000ae0:	bf00      	nop
 8000ae2:	bf00      	nop
 8000ae4:	3710      	adds	r7, #16
 8000ae6:	46bd      	mov	sp, r7
 8000ae8:	bd80      	pop	{r7, pc}
 8000aea:	bf00      	nop
 8000aec:	40005400 	andmi	r5, r0, r0, lsl #8
 8000af0:	2000001c 	andcs	r0, r0, ip, lsl r0

08000af4 <I2C1_EV_IRQHandler>:
 8000af4:	b580      	push	{r7, lr}
 8000af6:	b084      	sub	sp, #16
 8000af8:	af00      	add	r7, sp, #0
 8000afa:	2300      	movs	r3, #0
 8000afc:	603b      	str	r3, [r7, #0]
 8000afe:	4b36      	ldr	r3, [pc, #216]	; (8000bd8 <I2C1_EV_IRQHandler+0xe4>)
 8000b00:	695b      	ldr	r3, [r3, #20]
 8000b02:	f003 0310 	and.w	r3, r3, #16
 8000b06:	60fb      	str	r3, [r7, #12]
 8000b08:	4b33      	ldr	r3, [pc, #204]	; (8000bd8 <I2C1_EV_IRQHandler+0xe4>)
 8000b0a:	685b      	ldr	r3, [r3, #4]
 8000b0c:	f403 7300 	and.w	r3, r3, #512	; 0x200
 8000b10:	60bb      	str	r3, [r7, #8]
 8000b12:	4b31      	ldr	r3, [pc, #196]	; (8000bd8 <I2C1_EV_IRQHandler+0xe4>)
 8000b14:	685b      	ldr	r3, [r3, #4]
 8000b16:	f403 6380 	and.w	r3, r3, #1024	; 0x400
 8000b1a:	607b      	str	r3, [r7, #4]
 8000b1c:	68bb      	ldr	r3, [r7, #8]
 8000b1e:	2b00      	cmp	r3, #0
 8000b20:	d00a      	beq.n	8000b38 <I2C1_EV_IRQHandler+0x44>
 8000b22:	68fb      	ldr	r3, [r7, #12]
 8000b24:	2b00      	cmp	r3, #0
 8000b26:	d007      	beq.n	8000b38 <I2C1_EV_IRQHandler+0x44>
 8000b28:	4b2b      	ldr	r3, [pc, #172]	; (8000bd8 <I2C1_EV_IRQHandler+0xe4>)
 8000b2a:	4a2b      	ldr	r2, [pc, #172]	; (8000bd8 <I2C1_EV_IRQHandler+0xe4>)
 8000b2c:	681b      	ldr	r3, [r3, #0]
 8000b2e:	6013      	str	r3, [r2, #0]
 8000b30:	2100      	movs	r1, #0
 8000b32:	4829      	ldr	r0, [pc, #164]	; (8000bd8 <I2C1_EV_IRQHandler+0xe4>)
 8000b34:	f7ff ff72 	bl	8000a1c <Slave_Status>
 8000b38:	4b27      	ldr	r3, [pc, #156]	; (8000bd8 <I2C1_EV_IRQHandler+0xe4>)
 8000b3a:	695b      	ldr	r3, [r3, #20]
 8000b3c:	f003 0302 	and.w	r3, r3, #2
 8000b40:	60fb      	str	r3, [r7, #12]
 8000b42:	68bb      	ldr	r3, [r7, #8]
 8000b44:	2b00      	cmp	r3, #0
 8000b46:	d012      	beq.n	8000b6e <I2C1_EV_IRQHandler+0x7a>
 8000b48:	68fb      	ldr	r3, [r7, #12]
 8000b4a:	2b00      	cmp	r3, #0
 8000b4c:	d00f      	beq.n	8000b6e <I2C1_EV_IRQHandler+0x7a>
 8000b4e:	4b22      	ldr	r3, [pc, #136]	; (8000bd8 <I2C1_EV_IRQHandler+0xe4>)
 8000b50:	699b      	ldr	r3, [r3, #24]
 8000b52:	f003 0301 	and.w	r3, r3, #1
 8000b56:	2b00      	cmp	r3, #0
 8000b58:	d109      	bne.n	8000b6e <I2C1_EV_IRQHandler+0x7a>
 8000b5a:	4b1f      	ldr	r3, [pc, #124]	; (8000bd8 <I2C1_EV_IRQHandler+0xe4>)
 8000b5c:	695b      	ldr	r3, [r3, #20]
 8000b5e:	603b      	str	r3, [r7, #0]
 8000b60:	4b1d      	ldr	r3, [pc, #116]	; (8000bd8 <I2C1_EV_IRQHandler+0xe4>)
 8000b62:	699b      	ldr	r3, [r3, #24]
 8000b64:	603b      	str	r3, [r7, #0]
 8000b66:	2101      	movs	r1, #1
 8000b68:	481b      	ldr	r0, [pc, #108]	; (8000bd8 <I2C1_EV_IRQHandler+0xe4>)
 8000b6a:	f7ff ff57 	bl	8000a1c <Slave_Status>
 8000b6e:	4b1a      	ldr	r3, [pc, #104]	; (8000bd8 <I2C1_EV_IRQHandler+0xe4>)
 8000b70:	695b      	ldr	r3, [r3, #20]
 8000b72:	f003 0380 	and.w	r3, r3, #128	; 0x80
 8000b76:	60fb      	str	r3, [r7, #12]
 8000b78:	68bb      	ldr	r3, [r7, #8]
 8000b7a:	2b00      	cmp	r3, #0
 8000b7c:	d00f      	beq.n	8000b9e <I2C1_EV_IRQHandler+0xaa>
 8000b7e:	687b      	ldr	r3, [r7, #4]
 8000b80:	2b00      	cmp	r3, #0
 8000b82:	d00c      	beq.n	8000b9e <I2C1_EV_IRQHandler+0xaa>
 8000b84:	68fb      	ldr	r3, [r7, #12]
 8000b86:	2b00      	cmp	r3, #0
 8000b88:	d009      	beq.n	8000b9e <I2C1_EV_IRQHandler+0xaa>
 8000b8a:	4b13      	ldr	r3, [pc, #76]	; (8000bd8 <I2C1_EV_IRQHandler+0xe4>)
 8000b8c:	699b      	ldr	r3, [r3, #24]
 8000b8e:	f003 0301 	and.w	r3, r3, #1
 8000b92:	2b00      	cmp	r3, #0
 8000b94:	d103      	bne.n	8000b9e <I2C1_EV_IRQHandler+0xaa>
 8000b96:	2102      	movs	r1, #2
 8000b98:	480f      	ldr	r0, [pc, #60]	; (8000bd8 <I2C1_EV_IRQHandler+0xe4>)
 8000b9a:	f7ff ff3f 	bl	8000a1c <Slave_Status>
 8000b9e:	4b0e      	ldr	r3, [pc, #56]	; (8000bd8 <I2C1_EV_IRQHandler+0xe4>)
 8000ba0:	695b      	ldr	r3, [r3, #20]
 8000ba2:	f003 0340 	and.w	r3, r3, #64	; 0x40
 8000ba6:	60fb      	str	r3, [r7, #12]
 8000ba8:	68bb      	ldr	r3, [r7, #8]
 8000baa:	2b00      	cmp	r3, #0
 8000bac:	d00f      	beq.n	8000bce <I2C1_EV_IRQHandler+0xda>
 8000bae:	687b      	ldr	r3, [r7, #4]
 8000bb0:	2b00      	cmp	r3, #0
 8000bb2:	d00c      	beq.n	8000bce <I2C1_EV_IRQHandler+0xda>
 8000bb4:	68fb      	ldr	r3, [r7, #12]
 8000bb6:	2b00      	cmp	r3, #0
 8000bb8:	d009      	beq.n	8000bce <I2C1_EV_IRQHandler+0xda>
 8000bba:	4b07      	ldr	r3, [pc, #28]	; (8000bd8 <I2C1_EV_IRQHandler+0xe4>)
 8000bbc:	699b      	ldr	r3, [r3, #24]
 8000bbe:	f003 0301 	and.w	r3, r3, #1
 8000bc2:	2b00      	cmp	r3, #0
 8000bc4:	d103      	bne.n	8000bce <I2C1_EV_IRQHandler+0xda>
 8000bc6:	2103      	movs	r1, #3
 8000bc8:	4803      	ldr	r0, [pc, #12]	; (8000bd8 <I2C1_EV_IRQHandler+0xe4>)
 8000bca:	f7ff ff27 	bl	8000a1c <Slave_Status>
 8000bce:	bf00      	nop
 8000bd0:	3710      	adds	r7, #16
 8000bd2:	46bd      	mov	sp, r7
 8000bd4:	bd80      	pop	{r7, pc}
 8000bd6:	bf00      	nop
 8000bd8:	40005400 	andmi	r5, r0, r0, lsl #8

08000bdc <SPI1_IRQHandler>:
 8000bdc:	b580      	push	{r7, lr}
 8000bde:	b082      	sub	sp, #8
 8000be0:	af00      	add	r7, sp, #0
 8000be2:	4b13      	ldr	r3, [pc, #76]	; (8000c30 <SPI1_IRQHandler+0x54>)
 8000be4:	689b      	ldr	r3, [r3, #8]
 8000be6:	085b      	lsrs	r3, r3, #1
 8000be8:	f003 0301 	and.w	r3, r3, #1
 8000bec:	b2da      	uxtb	r2, r3
 8000bee:	793b      	ldrb	r3, [r7, #4]
 8000bf0:	f362 0300 	bfi	r3, r2, #0, #1
 8000bf4:	713b      	strb	r3, [r7, #4]
 8000bf6:	4b0e      	ldr	r3, [pc, #56]	; (8000c30 <SPI1_IRQHandler+0x54>)
 8000bf8:	689b      	ldr	r3, [r3, #8]
 8000bfa:	f003 0301 	and.w	r3, r3, #1
 8000bfe:	b2da      	uxtb	r2, r3
 8000c00:	793b      	ldrb	r3, [r7, #4]
 8000c02:	f362 0341 	bfi	r3, r2, #1, #1
 8000c06:	713b      	strb	r3, [r7, #4]
 8000c08:	4b09      	ldr	r3, [pc, #36]	; (8000c30 <SPI1_IRQHandler+0x54>)
 8000c0a:	689b      	ldr	r3, [r3, #8]
 8000c0c:	091b      	lsrs	r3, r3, #4
 8000c0e:	f003 0301 	and.w	r3, r3, #1
 8000c12:	b2da      	uxtb	r2, r3
 8000c14:	793b      	ldrb	r3, [r7, #4]
 8000c16:	f362 0382 	bfi	r3, r2, #2, #1
 8000c1a:	713b      	strb	r3, [r7, #4]
 8000c1c:	4b05      	ldr	r3, [pc, #20]	; (8000c34 <SPI1_IRQHandler+0x58>)
 8000c1e:	681b      	ldr	r3, [r3, #0]
 8000c20:	699b      	ldr	r3, [r3, #24]
 8000c22:	7938      	ldrb	r0, [r7, #4]
 8000c24:	4798      	blx	r3
 8000c26:	bf00      	nop
 8000c28:	3708      	adds	r7, #8
 8000c2a:	46bd      	mov	sp, r7
 8000c2c:	bd80      	pop	{r7, pc}
 8000c2e:	bf00      	nop
 8000c30:	40013000 	andmi	r3, r1, r0
 8000c34:	20000054 	andcs	r0, r0, r4, asr r0

08000c38 <SPI2_IRQHandler>:
 8000c38:	b580      	push	{r7, lr}
 8000c3a:	b082      	sub	sp, #8
 8000c3c:	af00      	add	r7, sp, #0
 8000c3e:	4b13      	ldr	r3, [pc, #76]	; (8000c8c <SPI2_IRQHandler+0x54>)
 8000c40:	689b      	ldr	r3, [r3, #8]
 8000c42:	085b      	lsrs	r3, r3, #1
 8000c44:	f003 0301 	and.w	r3, r3, #1
 8000c48:	b2da      	uxtb	r2, r3
 8000c4a:	793b      	ldrb	r3, [r7, #4]
 8000c4c:	f362 0300 	bfi	r3, r2, #0, #1
 8000c50:	713b      	strb	r3, [r7, #4]
 8000c52:	4b0e      	ldr	r3, [pc, #56]	; (8000c8c <SPI2_IRQHandler+0x54>)
 8000c54:	689b      	ldr	r3, [r3, #8]
 8000c56:	f003 0301 	and.w	r3, r3, #1
 8000c5a:	b2da      	uxtb	r2, r3
 8000c5c:	793b      	ldrb	r3, [r7, #4]
 8000c5e:	f362 0341 	bfi	r3, r2, #1, #1
 8000c62:	713b      	strb	r3, [r7, #4]
 8000c64:	4b09      	ldr	r3, [pc, #36]	; (8000c8c <SPI2_IRQHandler+0x54>)
 8000c66:	689b      	ldr	r3, [r3, #8]
 8000c68:	091b      	lsrs	r3, r3, #4
 8000c6a:	f003 0301 	and.w	r3, r3, #1
 8000c6e:	b2da      	uxtb	r2, r3
 8000c70:	793b      	ldrb	r3, [r7, #4]
 8000c72:	f362 0382 	bfi	r3, r2, #2, #1
 8000c76:	713b      	strb	r3, [r7, #4]
 8000c78:	4b05      	ldr	r3, [pc, #20]	; (8000c90 <SPI2_IRQHandler+0x58>)
 8000c7a:	685b      	ldr	r3, [r3, #4]
 8000c7c:	699b      	ldr	r3, [r3, #24]
 8000c7e:	7938      	ldrb	r0, [r7, #4]
 8000c80:	4798      	blx	r3
 8000c82:	bf00      	nop
 8000c84:	3708      	adds	r7, #8
 8000c86:	46bd      	mov	sp, r7
 8000c88:	bd80      	pop	{r7, pc}
 8000c8a:	bf00      	nop
 8000c8c:	40003800 	andmi	r3, r0, r0, lsl #16
 8000c90:	20000054 	andcs	r0, r0, r4, asr r0

08000c94 <USART1_IRQHandler>:
 8000c94:	b580      	push	{r7, lr}
 8000c96:	af00      	add	r7, sp, #0
 8000c98:	4b02      	ldr	r3, [pc, #8]	; (8000ca4 <USART1_IRQHandler+0x10>)
 8000c9a:	681b      	ldr	r3, [r3, #0]
 8000c9c:	68db      	ldr	r3, [r3, #12]
 8000c9e:	4798      	blx	r3
 8000ca0:	bf00      	nop
 8000ca2:	bd80      	pop	{r7, pc}
 8000ca4:	2000005c 	andcs	r0, r0, ip, asr r0

08000ca8 <USART2_IRQHandler>:
 8000ca8:	b580      	push	{r7, lr}
 8000caa:	af00      	add	r7, sp, #0
 8000cac:	4b02      	ldr	r3, [pc, #8]	; (8000cb8 <USART2_IRQHandler+0x10>)
 8000cae:	685b      	ldr	r3, [r3, #4]
 8000cb0:	68db      	ldr	r3, [r3, #12]
 8000cb2:	4798      	blx	r3
 8000cb4:	bf00      	nop
 8000cb6:	bd80      	pop	{r7, pc}
 8000cb8:	2000005c 	andcs	r0, r0, ip, asr r0

08000cbc <USART3_IRQHandler>:
 8000cbc:	b580      	push	{r7, lr}
 8000cbe:	af00      	add	r7, sp, #0
 8000cc0:	4b02      	ldr	r3, [pc, #8]	; (8000ccc <USART3_IRQHandler+0x10>)
 8000cc2:	689b      	ldr	r3, [r3, #8]
 8000cc4:	68db      	ldr	r3, [r3, #12]
 8000cc6:	4798      	blx	r3
 8000cc8:	bf00      	nop
 8000cca:	bd80      	pop	{r7, pc}
 8000ccc:	2000005c 	andcs	r0, r0, ip, asr r0

08000cd0 <__libc_init_array>:
 8000cd0:	b570      	push	{r4, r5, r6, lr}
 8000cd2:	2500      	movs	r5, #0
 8000cd4:	4e0c      	ldr	r6, [pc, #48]	; (8000d08 <__libc_init_array+0x38>)
 8000cd6:	4c0d      	ldr	r4, [pc, #52]	; (8000d0c <__libc_init_array+0x3c>)
 8000cd8:	1ba4      	subs	r4, r4, r6
 8000cda:	10a4      	asrs	r4, r4, #2
 8000cdc:	42a5      	cmp	r5, r4
 8000cde:	d109      	bne.n	8000cf4 <__libc_init_array+0x24>
 8000ce0:	f000 f81a 	bl	8000d18 <_init>
 8000ce4:	2500      	movs	r5, #0
 8000ce6:	4e0a      	ldr	r6, [pc, #40]	; (8000d10 <__libc_init_array+0x40>)
 8000ce8:	4c0a      	ldr	r4, [pc, #40]	; (8000d14 <__libc_init_array+0x44>)
 8000cea:	1ba4      	subs	r4, r4, r6
 8000cec:	10a4      	asrs	r4, r4, #2
 8000cee:	42a5      	cmp	r5, r4
 8000cf0:	d105      	bne.n	8000cfe <__libc_init_array+0x2e>
 8000cf2:	bd70      	pop	{r4, r5, r6, pc}
 8000cf4:	f856 3025 	ldr.w	r3, [r6, r5, lsl #2]
 8000cf8:	4798      	blx	r3
 8000cfa:	3501      	adds	r5, #1
 8000cfc:	e7ee      	b.n	8000cdc <__libc_init_array+0xc>
 8000cfe:	f856 3025 	ldr.w	r3, [r6, r5, lsl #2]
 8000d02:	4798      	blx	r3
 8000d04:	3501      	adds	r5, #1
 8000d06:	e7f2      	b.n	8000cee <__libc_init_array+0x1e>
 8000d08:	08000d3c 	stmdaeq	r0, {r2, r3, r4, r5, r8, sl, fp}
 8000d0c:	08000d3c 	stmdaeq	r0, {r2, r3, r4, r5, r8, sl, fp}
 8000d10:	08000d3c 	stmdaeq	r0, {r2, r3, r4, r5, r8, sl, fp}
 8000d14:	08000d40 	stmdaeq	r0, {r6, r8, sl, fp}

08000d18 <_init>:
 8000d18:	b5f8      	push	{r3, r4, r5, r6, r7, lr}
 8000d1a:	bf00      	nop
 8000d1c:	bcf8      	pop	{r3, r4, r5, r6, r7}
 8000d1e:	bc08      	pop	{r3}
 8000d20:	469e      	mov	lr, r3
 8000d22:	4770      	bx	lr

08000d24 <_fini>:
 8000d24:	b5f8      	push	{r3, r4, r5, r6, r7, lr}
 8000d26:	bf00      	nop
 8000d28:	bcf8      	pop	{r3, r4, r5, r6, r7}
 8000d2a:	bc08      	pop	{r3}
 8000d2c:	469e      	mov	lr, r3
 8000d2e:	4770      	bx	lr
