
Drivers.axf:     file format elf32-littlearm


Disassembly of section .isr_vector:

08000000 <g_pfnVectors>:
 8000000:	20002800 	andcs	r2, r0, r0, lsl #16
 8000004:	080003b5 	stmdaeq	r0, {r0, r2, r4, r5, r7, r8, r9}
 8000008:	08000405 	stmdaeq	r0, {r0, r2, sl}
 800000c:	08000405 	stmdaeq	r0, {r0, r2, sl}
 8000010:	08000405 	stmdaeq	r0, {r0, r2, sl}
 8000014:	08000405 	stmdaeq	r0, {r0, r2, sl}
 8000018:	08000405 	stmdaeq	r0, {r0, r2, sl}
	...
 800002c:	080001e1 	stmdaeq	r0, {r0, r5, r6, r7, r8}
 8000030:	08000405 	stmdaeq	r0, {r0, r2, sl}
 8000034:	00000000 	andeq	r0, r0, r0
 8000038:	08000405 	stmdaeq	r0, {r0, r2, sl}
 800003c:	08000405 	stmdaeq	r0, {r0, r2, sl}
 8000040:	08000405 	stmdaeq	r0, {r0, r2, sl}
 8000044:	08000405 	stmdaeq	r0, {r0, r2, sl}
 8000048:	08000405 	stmdaeq	r0, {r0, r2, sl}
 800004c:	08000405 	stmdaeq	r0, {r0, r2, sl}
 8000050:	08000405 	stmdaeq	r0, {r0, r2, sl}
 8000054:	08000405 	stmdaeq	r0, {r0, r2, sl}
 8000058:	08000785 	stmdaeq	r0, {r0, r2, r7, r8, r9, sl}
 800005c:	080007a9 	stmdaeq	r0, {r0, r3, r5, r7, r8, r9, sl}
 8000060:	080007cd 	stmdaeq	r0, {r0, r2, r3, r6, r7, r8, r9, sl}
 8000064:	080007f1 	stmdaeq	r0, {r0, r4, r5, r6, r7, r8, r9, sl}
 8000068:	08000815 	stmdaeq	r0, {r0, r2, r4, fp}
 800006c:	08000405 	stmdaeq	r0, {r0, r2, sl}
 8000070:	08000405 	stmdaeq	r0, {r0, r2, sl}
 8000074:	08000405 	stmdaeq	r0, {r0, r2, sl}
 8000078:	08000405 	stmdaeq	r0, {r0, r2, sl}
 800007c:	08000405 	stmdaeq	r0, {r0, r2, sl}
 8000080:	08000405 	stmdaeq	r0, {r0, r2, sl}
 8000084:	08000405 	stmdaeq	r0, {r0, r2, sl}
 8000088:	08000405 	stmdaeq	r0, {r0, r2, sl}
 800008c:	08000405 	stmdaeq	r0, {r0, r2, sl}
 8000090:	08000405 	stmdaeq	r0, {r0, r2, sl}
 8000094:	08000405 	stmdaeq	r0, {r0, r2, sl}
 8000098:	08000405 	stmdaeq	r0, {r0, r2, sl}
 800009c:	08000839 	stmdaeq	r0, {r0, r3, r4, r5, fp}
 80000a0:	08000405 	stmdaeq	r0, {r0, r2, sl}
 80000a4:	08000405 	stmdaeq	r0, {r0, r2, sl}
 80000a8:	08000405 	stmdaeq	r0, {r0, r2, sl}
 80000ac:	08000405 	stmdaeq	r0, {r0, r2, sl}
 80000b0:	08000405 	stmdaeq	r0, {r0, r2, sl}
 80000b4:	08000405 	stmdaeq	r0, {r0, r2, sl}
 80000b8:	08000405 	stmdaeq	r0, {r0, r2, sl}
 80000bc:	08000c41 	stmdaeq	r0, {r0, r6, sl, fp}
 80000c0:	08000405 	stmdaeq	r0, {r0, r2, sl}
 80000c4:	08000405 	stmdaeq	r0, {r0, r2, sl}
 80000c8:	08000405 	stmdaeq	r0, {r0, r2, sl}
 80000cc:	08000d29 	stmdaeq	r0, {r0, r3, r5, r8, sl, fp}
 80000d0:	08000d85 	stmdaeq	r0, {r0, r2, r7, r8, sl, fp}
 80000d4:	08000de1 	stmdaeq	r0, {r0, r5, r6, r7, r8, sl, fp}
 80000d8:	08000df5 	stmdaeq	r0, {r0, r2, r4, r5, r6, r7, r8, sl, fp}
 80000dc:	08000e09 	stmdaeq	r0, {r0, r3, r9, sl, fp}
 80000e0:	080008e1 	stmdaeq	r0, {r0, r5, r6, r7, fp}
 80000e4:	08000405 	stmdaeq	r0, {r0, r2, sl}
 80000e8:	00000000 	andeq	r0, r0, r0
 80000ec:	08000405 	stmdaeq	r0, {r0, r2, sl}
 80000f0:	08000405 	stmdaeq	r0, {r0, r2, sl}
 80000f4:	08000405 	stmdaeq	r0, {r0, r2, sl}
 80000f8:	08000405 	stmdaeq	r0, {r0, r2, sl}
 80000fc:	08000405 	stmdaeq	r0, {r0, r2, sl}
 8000100:	08000405 	stmdaeq	r0, {r0, r2, sl}
 8000104:	08000405 	stmdaeq	r0, {r0, r2, sl}
 8000108:	08000405 	stmdaeq	r0, {r0, r2, sl}
 800010c:	08000405 	stmdaeq	r0, {r0, r2, sl}
 8000110:	08000405 	stmdaeq	r0, {r0, r2, sl}
 8000114:	08000405 	stmdaeq	r0, {r0, r2, sl}
 8000118:	08000405 	stmdaeq	r0, {r0, r2, sl}
 800011c:	08000405 	stmdaeq	r0, {r0, r2, sl}
 8000120:	08000405 	stmdaeq	r0, {r0, r2, sl}
 8000124:	08000405 	stmdaeq	r0, {r0, r2, sl}
 8000128:	08000405 	stmdaeq	r0, {r0, r2, sl}
 800012c:	08000405 	stmdaeq	r0, {r0, r2, sl}

Disassembly of section .text:

08000130 <__do_global_dtors_aux>:
 8000130:	b510      	push	{r4, lr}
 8000132:	4c05      	ldr	r4, [pc, #20]	; (8000148 <__do_global_dtors_aux+0x18>)
 8000134:	7823      	ldrb	r3, [r4, #0]
 8000136:	b933      	cbnz	r3, 8000146 <__do_global_dtors_aux+0x16>
 8000138:	4b04      	ldr	r3, [pc, #16]	; (800014c <__do_global_dtors_aux+0x1c>)
 800013a:	b113      	cbz	r3, 8000142 <__do_global_dtors_aux+0x12>
 800013c:	4804      	ldr	r0, [pc, #16]	; (8000150 <__do_global_dtors_aux+0x20>)
 800013e:	f3af 8000 	nop.w
 8000142:	2301      	movs	r3, #1
 8000144:	7023      	strb	r3, [r4, #0]
 8000146:	bd10      	pop	{r4, pc}
 8000148:	20000004 	andcs	r0, r0, r4
 800014c:	00000000 	andeq	r0, r0, r0
 8000150:	08000e64 	stmdaeq	r0, {r2, r5, r6, r9, sl, fp}

08000154 <frame_dummy>:
 8000154:	b508      	push	{r3, lr}
 8000156:	4b03      	ldr	r3, [pc, #12]	; (8000164 <frame_dummy+0x10>)
 8000158:	b11b      	cbz	r3, 8000162 <frame_dummy+0xe>
 800015a:	4903      	ldr	r1, [pc, #12]	; (8000168 <frame_dummy+0x14>)
 800015c:	4803      	ldr	r0, [pc, #12]	; (800016c <frame_dummy+0x18>)
 800015e:	f3af 8000 	nop.w
 8000162:	bd08      	pop	{r3, pc}
 8000164:	00000000 	andeq	r0, r0, r0
 8000168:	20000008 	andcs	r0, r0, r8
 800016c:	08000e64 	stmdaeq	r0, {r2, r5, r6, r9, sl, fp}

08000170 <Clock_INIT>:
 8000170:	b480      	push	{r7}
 8000172:	af00      	add	r7, sp, #0
 8000174:	4b19      	ldr	r3, [pc, #100]	; (80001dc <Clock_INIT+0x6c>)
 8000176:	699b      	ldr	r3, [r3, #24]
 8000178:	4a18      	ldr	r2, [pc, #96]	; (80001dc <Clock_INIT+0x6c>)
 800017a:	f043 0304 	orr.w	r3, r3, #4
 800017e:	6193      	str	r3, [r2, #24]
 8000180:	4b16      	ldr	r3, [pc, #88]	; (80001dc <Clock_INIT+0x6c>)
 8000182:	699b      	ldr	r3, [r3, #24]
 8000184:	4a15      	ldr	r2, [pc, #84]	; (80001dc <Clock_INIT+0x6c>)
 8000186:	f043 0308 	orr.w	r3, r3, #8
 800018a:	6193      	str	r3, [r2, #24]
 800018c:	4b13      	ldr	r3, [pc, #76]	; (80001dc <Clock_INIT+0x6c>)
 800018e:	699b      	ldr	r3, [r3, #24]
 8000190:	4a12      	ldr	r2, [pc, #72]	; (80001dc <Clock_INIT+0x6c>)
 8000192:	f043 0310 	orr.w	r3, r3, #16
 8000196:	6193      	str	r3, [r2, #24]
 8000198:	4b10      	ldr	r3, [pc, #64]	; (80001dc <Clock_INIT+0x6c>)
 800019a:	699b      	ldr	r3, [r3, #24]
 800019c:	4a0f      	ldr	r2, [pc, #60]	; (80001dc <Clock_INIT+0x6c>)
 800019e:	f043 0301 	orr.w	r3, r3, #1
 80001a2:	6193      	str	r3, [r2, #24]
 80001a4:	4b0d      	ldr	r3, [pc, #52]	; (80001dc <Clock_INIT+0x6c>)
 80001a6:	69db      	ldr	r3, [r3, #28]
 80001a8:	4a0c      	ldr	r2, [pc, #48]	; (80001dc <Clock_INIT+0x6c>)
 80001aa:	f043 0301 	orr.w	r3, r3, #1
 80001ae:	61d3      	str	r3, [r2, #28]
 80001b0:	4b0a      	ldr	r3, [pc, #40]	; (80001dc <Clock_INIT+0x6c>)
 80001b2:	69db      	ldr	r3, [r3, #28]
 80001b4:	4a09      	ldr	r2, [pc, #36]	; (80001dc <Clock_INIT+0x6c>)
 80001b6:	f043 0302 	orr.w	r3, r3, #2
 80001ba:	61d3      	str	r3, [r2, #28]
 80001bc:	4b07      	ldr	r3, [pc, #28]	; (80001dc <Clock_INIT+0x6c>)
 80001be:	69db      	ldr	r3, [r3, #28]
 80001c0:	4a06      	ldr	r2, [pc, #24]	; (80001dc <Clock_INIT+0x6c>)
 80001c2:	f043 0304 	orr.w	r3, r3, #4
 80001c6:	61d3      	str	r3, [r2, #28]
 80001c8:	4b04      	ldr	r3, [pc, #16]	; (80001dc <Clock_INIT+0x6c>)
 80001ca:	699b      	ldr	r3, [r3, #24]
 80001cc:	4a03      	ldr	r2, [pc, #12]	; (80001dc <Clock_INIT+0x6c>)
 80001ce:	f443 7300 	orr.w	r3, r3, #512	; 0x200
 80001d2:	6193      	str	r3, [r2, #24]
 80001d4:	bf00      	nop
 80001d6:	46bd      	mov	sp, r7
 80001d8:	bc80      	pop	{r7}
 80001da:	4770      	bx	lr
 80001dc:	40021000 	andmi	r1, r2, r0

080001e0 <SVC_Handler>:
 80001e0:	b480      	push	{r7}
 80001e2:	af00      	add	r7, sp, #0
 80001e4:	f3ef 8314 	mrs	r3, CONTROL
 80001e8:	ea4f 0353 	mov.w	r3, r3, lsr #1
 80001ec:	ea4f 0343 	mov.w	r3, r3, lsl #1
 80001f0:	f383 8814 	msr	CONTROL, r3
 80001f4:	bf00      	nop
 80001f6:	46bd      	mov	sp, r7
 80001f8:	bc80      	pop	{r7}
 80001fa:	4770      	bx	lr

080001fc <EXTI_9>:
 80001fc:	b480      	push	{r7}
 80001fe:	af00      	add	r7, sp, #0
 8000200:	4b0c      	ldr	r3, [pc, #48]	; (8000234 <EXTI_9+0x38>)
 8000202:	781b      	ldrb	r3, [r3, #0]
 8000204:	2b00      	cmp	r3, #0
 8000206:	d106      	bne.n	8000216 <EXTI_9+0x1a>
 8000208:	4b0b      	ldr	r3, [pc, #44]	; (8000238 <EXTI_9+0x3c>)
 800020a:	2201      	movs	r2, #1
 800020c:	701a      	strb	r2, [r3, #0]
 800020e:	4b09      	ldr	r3, [pc, #36]	; (8000234 <EXTI_9+0x38>)
 8000210:	2201      	movs	r2, #1
 8000212:	701a      	strb	r2, [r3, #0]
 8000214:	e009      	b.n	800022a <EXTI_9+0x2e>
 8000216:	4b07      	ldr	r3, [pc, #28]	; (8000234 <EXTI_9+0x38>)
 8000218:	781b      	ldrb	r3, [r3, #0]
 800021a:	2b01      	cmp	r3, #1
 800021c:	d105      	bne.n	800022a <EXTI_9+0x2e>
 800021e:	4b07      	ldr	r3, [pc, #28]	; (800023c <EXTI_9+0x40>)
 8000220:	2201      	movs	r2, #1
 8000222:	701a      	strb	r2, [r3, #0]
 8000224:	4b03      	ldr	r3, [pc, #12]	; (8000234 <EXTI_9+0x38>)
 8000226:	2200      	movs	r2, #0
 8000228:	701a      	strb	r2, [r3, #0]
 800022a:	bf00      	nop
 800022c:	46bd      	mov	sp, r7
 800022e:	bc80      	pop	{r7}
 8000230:	4770      	bx	lr
 8000232:	bf00      	nop
 8000234:	20000022 	andcs	r0, r0, r2, lsr #32
 8000238:	20000020 	andcs	r0, r0, r0, lsr #32
 800023c:	20000021 	andcs	r0, r0, r1, lsr #32

08000240 <Task_A>:
 8000240:	b480      	push	{r7}
 8000242:	b085      	sub	sp, #20
 8000244:	af00      	add	r7, sp, #0
 8000246:	4603      	mov	r3, r0
 8000248:	460a      	mov	r2, r1
 800024a:	71fb      	strb	r3, [r7, #7]
 800024c:	4613      	mov	r3, r2
 800024e:	71bb      	strb	r3, [r7, #6]
 8000250:	79fa      	ldrb	r2, [r7, #7]
 8000252:	79bb      	ldrb	r3, [r7, #6]
 8000254:	4413      	add	r3, r2
 8000256:	73fb      	strb	r3, [r7, #15]
 8000258:	7bfb      	ldrb	r3, [r7, #15]
 800025a:	4618      	mov	r0, r3
 800025c:	3714      	adds	r7, #20
 800025e:	46bd      	mov	sp, r7
 8000260:	bc80      	pop	{r7}
 8000262:	4770      	bx	lr

08000264 <Task_B>:
 8000264:	b480      	push	{r7}
 8000266:	b085      	sub	sp, #20
 8000268:	af00      	add	r7, sp, #0
 800026a:	4603      	mov	r3, r0
 800026c:	460a      	mov	r2, r1
 800026e:	71fb      	strb	r3, [r7, #7]
 8000270:	4613      	mov	r3, r2
 8000272:	71bb      	strb	r3, [r7, #6]
 8000274:	79fa      	ldrb	r2, [r7, #7]
 8000276:	79bb      	ldrb	r3, [r7, #6]
 8000278:	1ad3      	subs	r3, r2, r3
 800027a:	73fb      	strb	r3, [r7, #15]
 800027c:	7bfb      	ldrb	r3, [r7, #15]
 800027e:	4618      	mov	r0, r3
 8000280:	3714      	adds	r7, #20
 8000282:	46bd      	mov	sp, r7
 8000284:	bc80      	pop	{r7}
 8000286:	4770      	bx	lr

08000288 <main_os>:
 8000288:	b580      	push	{r7, lr}
 800028a:	b082      	sub	sp, #8
 800028c:	af00      	add	r7, sp, #0
 800028e:	4b33      	ldr	r3, [pc, #204]	; (800035c <main_os+0xd4>)
 8000290:	681b      	ldr	r3, [r3, #0]
 8000292:	f5a3 7300 	sub.w	r3, r3, #512	; 0x200
 8000296:	4a32      	ldr	r2, [pc, #200]	; (8000360 <main_os+0xd8>)
 8000298:	6013      	str	r3, [r2, #0]
 800029a:	4b31      	ldr	r3, [pc, #196]	; (8000360 <main_os+0xd8>)
 800029c:	681b      	ldr	r3, [r3, #0]
 800029e:	3b08      	subs	r3, #8
 80002a0:	4a30      	ldr	r2, [pc, #192]	; (8000364 <main_os+0xdc>)
 80002a2:	6013      	str	r3, [r2, #0]
 80002a4:	4b2f      	ldr	r3, [pc, #188]	; (8000364 <main_os+0xdc>)
 80002a6:	681b      	ldr	r3, [r3, #0]
 80002a8:	3b64      	subs	r3, #100	; 0x64
 80002aa:	4a2f      	ldr	r2, [pc, #188]	; (8000368 <main_os+0xe0>)
 80002ac:	6013      	str	r3, [r2, #0]
 80002ae:	4b2e      	ldr	r3, [pc, #184]	; (8000368 <main_os+0xe0>)
 80002b0:	681b      	ldr	r3, [r3, #0]
 80002b2:	3b08      	subs	r3, #8
 80002b4:	4a2d      	ldr	r2, [pc, #180]	; (800036c <main_os+0xe4>)
 80002b6:	6013      	str	r3, [r2, #0]
 80002b8:	4b2c      	ldr	r3, [pc, #176]	; (800036c <main_os+0xe4>)
 80002ba:	681b      	ldr	r3, [r3, #0]
 80002bc:	3b64      	subs	r3, #100	; 0x64
 80002be:	4a2c      	ldr	r2, [pc, #176]	; (8000370 <main_os+0xe8>)
 80002c0:	6013      	str	r3, [r2, #0]
 80002c2:	4b2c      	ldr	r3, [pc, #176]	; (8000374 <main_os+0xec>)
 80002c4:	781b      	ldrb	r3, [r3, #0]
 80002c6:	2b01      	cmp	r3, #1
 80002c8:	d121      	bne.n	800030e <main_os+0x86>
 80002ca:	4b2a      	ldr	r3, [pc, #168]	; (8000374 <main_os+0xec>)
 80002cc:	2200      	movs	r2, #0
 80002ce:	701a      	strb	r2, [r3, #0]
 80002d0:	4b24      	ldr	r3, [pc, #144]	; (8000364 <main_os+0xdc>)
 80002d2:	681b      	ldr	r3, [r3, #0]
 80002d4:	4618      	mov	r0, r3
 80002d6:	f380 8809 	msr	PSP, r0
 80002da:	f3ef 8014 	mrs	r0, CONTROL
 80002de:	f040 0002 	orr.w	r0, r0, #2
 80002e2:	f380 8814 	msr	CONTROL, r0
 80002e6:	f3ef 8314 	mrs	r3, CONTROL
 80002ea:	f043 0301 	orr.w	r3, r3, #1
 80002ee:	f383 8814 	msr	CONTROL, r3
 80002f2:	210a      	movs	r1, #10
 80002f4:	2005      	movs	r0, #5
 80002f6:	f7ff ffa3 	bl	8000240 <Task_A>
 80002fa:	4603      	mov	r3, r0
 80002fc:	71bb      	strb	r3, [r7, #6]
 80002fe:	df03      	svc	3
 8000300:	f3ef 8014 	mrs	r0, CONTROL
 8000304:	f000 0005 	and.w	r0, r0, #5
 8000308:	f380 8814 	msr	CONTROL, r0
 800030c:	e7d9      	b.n	80002c2 <main_os+0x3a>
 800030e:	4b1a      	ldr	r3, [pc, #104]	; (8000378 <main_os+0xf0>)
 8000310:	781b      	ldrb	r3, [r3, #0]
 8000312:	2b01      	cmp	r3, #1
 8000314:	d1d5      	bne.n	80002c2 <main_os+0x3a>
 8000316:	4b18      	ldr	r3, [pc, #96]	; (8000378 <main_os+0xf0>)
 8000318:	2200      	movs	r2, #0
 800031a:	701a      	strb	r2, [r3, #0]
 800031c:	4b13      	ldr	r3, [pc, #76]	; (800036c <main_os+0xe4>)
 800031e:	681b      	ldr	r3, [r3, #0]
 8000320:	4618      	mov	r0, r3
 8000322:	f380 8809 	msr	PSP, r0
 8000326:	f3ef 8014 	mrs	r0, CONTROL
 800032a:	f040 0002 	orr.w	r0, r0, #2
 800032e:	f380 8814 	msr	CONTROL, r0
 8000332:	f3ef 8314 	mrs	r3, CONTROL
 8000336:	f043 0301 	orr.w	r3, r3, #1
 800033a:	f383 8814 	msr	CONTROL, r3
 800033e:	210a      	movs	r1, #10
 8000340:	2032      	movs	r0, #50	; 0x32
 8000342:	f7ff ff8f 	bl	8000264 <Task_B>
 8000346:	4603      	mov	r3, r0
 8000348:	71fb      	strb	r3, [r7, #7]
 800034a:	df03      	svc	3
 800034c:	f3ef 8014 	mrs	r0, CONTROL
 8000350:	f000 0005 	and.w	r0, r0, #5
 8000354:	f380 8814 	msr	CONTROL, r0
 8000358:	e7b3      	b.n	80002c2 <main_os+0x3a>
 800035a:	bf00      	nop
 800035c:	20000000 	andcs	r0, r0, r0
 8000360:	20000070 	andcs	r0, r0, r0, ror r0
 8000364:	20000074 	andcs	r0, r0, r4, ror r0
 8000368:	20000080 	andcs	r0, r0, r0, lsl #1
 800036c:	20000078 	andcs	r0, r0, r8, ror r0
 8000370:	2000007c 	andcs	r0, r0, ip, ror r0
 8000374:	20000020 	andcs	r0, r0, r0, lsr #32
 8000378:	20000021 	andcs	r0, r0, r1, lsr #32

0800037c <main>:
 800037c:	b580      	push	{r7, lr}
 800037e:	b086      	sub	sp, #24
 8000380:	af00      	add	r7, sp, #0
 8000382:	f7ff fef5 	bl	8000170 <Clock_INIT>
 8000386:	4a09      	ldr	r2, [pc, #36]	; (80003ac <main+0x30>)
 8000388:	1d3b      	adds	r3, r7, #4
 800038a:	ca07      	ldmia	r2, {r0, r1, r2}
 800038c:	e883 0007 	stmia.w	r3, {r0, r1, r2}
 8000390:	2300      	movs	r3, #0
 8000392:	743b      	strb	r3, [r7, #16]
 8000394:	4b06      	ldr	r3, [pc, #24]	; (80003b0 <main+0x34>)
 8000396:	617b      	str	r3, [r7, #20]
 8000398:	2301      	movs	r3, #1
 800039a:	747b      	strb	r3, [r7, #17]
 800039c:	1d3b      	adds	r3, r7, #4
 800039e:	4618      	mov	r0, r3
 80003a0:	f000 f9e4 	bl	800076c <MCAL_EXTI_GPIO_Init>
 80003a4:	f7ff ff70 	bl	8000288 <main_os>
 80003a8:	e7fe      	b.n	80003a8 <main+0x2c>
 80003aa:	bf00      	nop
 80003ac:	08000e7c 	stmdaeq	r0, {r2, r3, r4, r5, r6, r9, sl, fp}
 80003b0:	080001fd 	stmdaeq	r0, {r0, r2, r3, r4, r5, r6, r7, r8}

080003b4 <Reset_Handler>:
 80003b4:	480d      	ldr	r0, [pc, #52]	; (80003ec <LoopForever+0x2>)
 80003b6:	4685      	mov	sp, r0
 80003b8:	f3af 8000 	nop.w
 80003bc:	480c      	ldr	r0, [pc, #48]	; (80003f0 <LoopForever+0x6>)
 80003be:	490d      	ldr	r1, [pc, #52]	; (80003f4 <LoopForever+0xa>)
 80003c0:	4a0d      	ldr	r2, [pc, #52]	; (80003f8 <LoopForever+0xe>)
 80003c2:	2300      	movs	r3, #0
 80003c4:	e002      	b.n	80003cc <LoopCopyDataInit>

080003c6 <CopyDataInit>:
 80003c6:	58d4      	ldr	r4, [r2, r3]
 80003c8:	50c4      	str	r4, [r0, r3]
 80003ca:	3304      	adds	r3, #4

080003cc <LoopCopyDataInit>:
 80003cc:	18c4      	adds	r4, r0, r3
 80003ce:	428c      	cmp	r4, r1
 80003d0:	d3f9      	bcc.n	80003c6 <CopyDataInit>
 80003d2:	4a0a      	ldr	r2, [pc, #40]	; (80003fc <LoopForever+0x12>)
 80003d4:	4c0a      	ldr	r4, [pc, #40]	; (8000400 <LoopForever+0x16>)
 80003d6:	2300      	movs	r3, #0
 80003d8:	e001      	b.n	80003de <LoopFillZerobss>

080003da <FillZerobss>:
 80003da:	6013      	str	r3, [r2, #0]
 80003dc:	3204      	adds	r2, #4

080003de <LoopFillZerobss>:
 80003de:	42a2      	cmp	r2, r4
 80003e0:	d3fb      	bcc.n	80003da <FillZerobss>
 80003e2:	f000 fd1b 	bl	8000e1c <__libc_init_array>
 80003e6:	f7ff ffc9 	bl	800037c <main>

080003ea <LoopForever>:
 80003ea:	e7fe      	b.n	80003ea <LoopForever>
 80003ec:	20002800 	andcs	r2, r0, r0, lsl #16
 80003f0:	20000000 	andcs	r0, r0, r0
 80003f4:	20000004 	andcs	r0, r0, r4
 80003f8:	08000e90 	stmdaeq	r0, {r4, r7, r9, sl, fp}
 80003fc:	20000004 	andcs	r0, r0, r4
 8000400:	200000c0 	andcs	r0, r0, r0, asr #1

08000404 <ADC1_2_IRQHandler>:
 8000404:	e7fe      	b.n	8000404 <ADC1_2_IRQHandler>
	...

08000408 <Enable_NVIC>:
 8000408:	b480      	push	{r7}
 800040a:	b083      	sub	sp, #12
 800040c:	af00      	add	r7, sp, #0
 800040e:	4603      	mov	r3, r0
 8000410:	80fb      	strh	r3, [r7, #6]
 8000412:	88fb      	ldrh	r3, [r7, #6]
 8000414:	2b0f      	cmp	r3, #15
 8000416:	d854      	bhi.n	80004c2 <Enable_NVIC+0xba>
 8000418:	a201      	add	r2, pc, #4	; (adr r2, 8000420 <Enable_NVIC+0x18>)
 800041a:	f852 f023 	ldr.w	pc, [r2, r3, lsl #2]
 800041e:	bf00      	nop
 8000420:	08000461 	stmdaeq	r0, {r0, r5, r6, sl}
 8000424:	0800046f 	stmdaeq	r0, {r0, r1, r2, r3, r5, r6, sl}
 8000428:	0800047d 	stmdaeq	r0, {r0, r2, r3, r4, r5, r6, sl}
 800042c:	0800048b 	stmdaeq	r0, {r0, r1, r3, r7, sl}
 8000430:	08000499 	stmdaeq	r0, {r0, r3, r4, r7, sl}
 8000434:	080004a7 	stmdaeq	r0, {r0, r1, r2, r5, r7, sl}
 8000438:	080004a7 	stmdaeq	r0, {r0, r1, r2, r5, r7, sl}
 800043c:	080004a7 	stmdaeq	r0, {r0, r1, r2, r5, r7, sl}
 8000440:	080004a7 	stmdaeq	r0, {r0, r1, r2, r5, r7, sl}
 8000444:	080004a7 	stmdaeq	r0, {r0, r1, r2, r5, r7, sl}
 8000448:	080004b5 	stmdaeq	r0, {r0, r2, r4, r5, r7, sl}
 800044c:	080004b5 	stmdaeq	r0, {r0, r2, r4, r5, r7, sl}
 8000450:	080004b5 	stmdaeq	r0, {r0, r2, r4, r5, r7, sl}
 8000454:	080004b5 	stmdaeq	r0, {r0, r2, r4, r5, r7, sl}
 8000458:	080004b5 	stmdaeq	r0, {r0, r2, r4, r5, r7, sl}
 800045c:	080004b5 	stmdaeq	r0, {r0, r2, r4, r5, r7, sl}
 8000460:	4b1a      	ldr	r3, [pc, #104]	; (80004cc <Enable_NVIC+0xc4>)
 8000462:	681b      	ldr	r3, [r3, #0]
 8000464:	4a19      	ldr	r2, [pc, #100]	; (80004cc <Enable_NVIC+0xc4>)
 8000466:	f043 0340 	orr.w	r3, r3, #64	; 0x40
 800046a:	6013      	str	r3, [r2, #0]
 800046c:	e029      	b.n	80004c2 <Enable_NVIC+0xba>
 800046e:	4b17      	ldr	r3, [pc, #92]	; (80004cc <Enable_NVIC+0xc4>)
 8000470:	681b      	ldr	r3, [r3, #0]
 8000472:	4a16      	ldr	r2, [pc, #88]	; (80004cc <Enable_NVIC+0xc4>)
 8000474:	f043 0380 	orr.w	r3, r3, #128	; 0x80
 8000478:	6013      	str	r3, [r2, #0]
 800047a:	e022      	b.n	80004c2 <Enable_NVIC+0xba>
 800047c:	4b13      	ldr	r3, [pc, #76]	; (80004cc <Enable_NVIC+0xc4>)
 800047e:	681b      	ldr	r3, [r3, #0]
 8000480:	4a12      	ldr	r2, [pc, #72]	; (80004cc <Enable_NVIC+0xc4>)
 8000482:	f443 7380 	orr.w	r3, r3, #256	; 0x100
 8000486:	6013      	str	r3, [r2, #0]
 8000488:	e01b      	b.n	80004c2 <Enable_NVIC+0xba>
 800048a:	4b10      	ldr	r3, [pc, #64]	; (80004cc <Enable_NVIC+0xc4>)
 800048c:	681b      	ldr	r3, [r3, #0]
 800048e:	4a0f      	ldr	r2, [pc, #60]	; (80004cc <Enable_NVIC+0xc4>)
 8000490:	f443 7300 	orr.w	r3, r3, #512	; 0x200
 8000494:	6013      	str	r3, [r2, #0]
 8000496:	e014      	b.n	80004c2 <Enable_NVIC+0xba>
 8000498:	4b0c      	ldr	r3, [pc, #48]	; (80004cc <Enable_NVIC+0xc4>)
 800049a:	681b      	ldr	r3, [r3, #0]
 800049c:	4a0b      	ldr	r2, [pc, #44]	; (80004cc <Enable_NVIC+0xc4>)
 800049e:	f443 6380 	orr.w	r3, r3, #1024	; 0x400
 80004a2:	6013      	str	r3, [r2, #0]
 80004a4:	e00d      	b.n	80004c2 <Enable_NVIC+0xba>
 80004a6:	4b09      	ldr	r3, [pc, #36]	; (80004cc <Enable_NVIC+0xc4>)
 80004a8:	681b      	ldr	r3, [r3, #0]
 80004aa:	4a08      	ldr	r2, [pc, #32]	; (80004cc <Enable_NVIC+0xc4>)
 80004ac:	f443 0300 	orr.w	r3, r3, #8388608	; 0x800000
 80004b0:	6013      	str	r3, [r2, #0]
 80004b2:	e006      	b.n	80004c2 <Enable_NVIC+0xba>
 80004b4:	4b06      	ldr	r3, [pc, #24]	; (80004d0 <Enable_NVIC+0xc8>)
 80004b6:	681b      	ldr	r3, [r3, #0]
 80004b8:	4a05      	ldr	r2, [pc, #20]	; (80004d0 <Enable_NVIC+0xc8>)
 80004ba:	f443 7380 	orr.w	r3, r3, #256	; 0x100
 80004be:	6013      	str	r3, [r2, #0]
 80004c0:	bf00      	nop
 80004c2:	bf00      	nop
 80004c4:	370c      	adds	r7, #12
 80004c6:	46bd      	mov	sp, r7
 80004c8:	bc80      	pop	{r7}
 80004ca:	4770      	bx	lr
 80004cc:	e000e100 	and	lr, r0, r0, lsl #2
 80004d0:	e000e104 	and	lr, r0, r4, lsl #2

080004d4 <Disable_NVIC>:
 80004d4:	b480      	push	{r7}
 80004d6:	b083      	sub	sp, #12
 80004d8:	af00      	add	r7, sp, #0
 80004da:	4603      	mov	r3, r0
 80004dc:	80fb      	strh	r3, [r7, #6]
 80004de:	88fb      	ldrh	r3, [r7, #6]
 80004e0:	2b0f      	cmp	r3, #15
 80004e2:	d854      	bhi.n	800058e <Disable_NVIC+0xba>
 80004e4:	a201      	add	r2, pc, #4	; (adr r2, 80004ec <Disable_NVIC+0x18>)
 80004e6:	f852 f023 	ldr.w	pc, [r2, r3, lsl #2]
 80004ea:	bf00      	nop
 80004ec:	0800052d 	stmdaeq	r0, {r0, r2, r3, r5, r8, sl}
 80004f0:	0800053b 	stmdaeq	r0, {r0, r1, r3, r4, r5, r8, sl}
 80004f4:	08000549 	stmdaeq	r0, {r0, r3, r6, r8, sl}
 80004f8:	08000557 	stmdaeq	r0, {r0, r1, r2, r4, r6, r8, sl}
 80004fc:	08000565 	stmdaeq	r0, {r0, r2, r5, r6, r8, sl}
 8000500:	08000573 	stmdaeq	r0, {r0, r1, r4, r5, r6, r8, sl}
 8000504:	08000573 	stmdaeq	r0, {r0, r1, r4, r5, r6, r8, sl}
 8000508:	08000573 	stmdaeq	r0, {r0, r1, r4, r5, r6, r8, sl}
 800050c:	08000573 	stmdaeq	r0, {r0, r1, r4, r5, r6, r8, sl}
 8000510:	08000573 	stmdaeq	r0, {r0, r1, r4, r5, r6, r8, sl}
 8000514:	08000581 	stmdaeq	r0, {r0, r7, r8, sl}
 8000518:	08000581 	stmdaeq	r0, {r0, r7, r8, sl}
 800051c:	08000581 	stmdaeq	r0, {r0, r7, r8, sl}
 8000520:	08000581 	stmdaeq	r0, {r0, r7, r8, sl}
 8000524:	08000581 	stmdaeq	r0, {r0, r7, r8, sl}
 8000528:	08000581 	stmdaeq	r0, {r0, r7, r8, sl}
 800052c:	4b1a      	ldr	r3, [pc, #104]	; (8000598 <Disable_NVIC+0xc4>)
 800052e:	681b      	ldr	r3, [r3, #0]
 8000530:	4a19      	ldr	r2, [pc, #100]	; (8000598 <Disable_NVIC+0xc4>)
 8000532:	f043 0340 	orr.w	r3, r3, #64	; 0x40
 8000536:	6013      	str	r3, [r2, #0]
 8000538:	e029      	b.n	800058e <Disable_NVIC+0xba>
 800053a:	4b17      	ldr	r3, [pc, #92]	; (8000598 <Disable_NVIC+0xc4>)
 800053c:	681b      	ldr	r3, [r3, #0]
 800053e:	4a16      	ldr	r2, [pc, #88]	; (8000598 <Disable_NVIC+0xc4>)
 8000540:	f043 0380 	orr.w	r3, r3, #128	; 0x80
 8000544:	6013      	str	r3, [r2, #0]
 8000546:	e022      	b.n	800058e <Disable_NVIC+0xba>
 8000548:	4b13      	ldr	r3, [pc, #76]	; (8000598 <Disable_NVIC+0xc4>)
 800054a:	681b      	ldr	r3, [r3, #0]
 800054c:	4a12      	ldr	r2, [pc, #72]	; (8000598 <Disable_NVIC+0xc4>)
 800054e:	f443 7380 	orr.w	r3, r3, #256	; 0x100
 8000552:	6013      	str	r3, [r2, #0]
 8000554:	e01b      	b.n	800058e <Disable_NVIC+0xba>
 8000556:	4b10      	ldr	r3, [pc, #64]	; (8000598 <Disable_NVIC+0xc4>)
 8000558:	681b      	ldr	r3, [r3, #0]
 800055a:	4a0f      	ldr	r2, [pc, #60]	; (8000598 <Disable_NVIC+0xc4>)
 800055c:	f443 7300 	orr.w	r3, r3, #512	; 0x200
 8000560:	6013      	str	r3, [r2, #0]
 8000562:	e014      	b.n	800058e <Disable_NVIC+0xba>
 8000564:	4b0c      	ldr	r3, [pc, #48]	; (8000598 <Disable_NVIC+0xc4>)
 8000566:	681b      	ldr	r3, [r3, #0]
 8000568:	4a0b      	ldr	r2, [pc, #44]	; (8000598 <Disable_NVIC+0xc4>)
 800056a:	f443 6380 	orr.w	r3, r3, #1024	; 0x400
 800056e:	6013      	str	r3, [r2, #0]
 8000570:	e00d      	b.n	800058e <Disable_NVIC+0xba>
 8000572:	4b09      	ldr	r3, [pc, #36]	; (8000598 <Disable_NVIC+0xc4>)
 8000574:	681b      	ldr	r3, [r3, #0]
 8000576:	4a08      	ldr	r2, [pc, #32]	; (8000598 <Disable_NVIC+0xc4>)
 8000578:	f443 0300 	orr.w	r3, r3, #8388608	; 0x800000
 800057c:	6013      	str	r3, [r2, #0]
 800057e:	e006      	b.n	800058e <Disable_NVIC+0xba>
 8000580:	4b06      	ldr	r3, [pc, #24]	; (800059c <Disable_NVIC+0xc8>)
 8000582:	681b      	ldr	r3, [r3, #0]
 8000584:	4a05      	ldr	r2, [pc, #20]	; (800059c <Disable_NVIC+0xc8>)
 8000586:	f443 7380 	orr.w	r3, r3, #256	; 0x100
 800058a:	6013      	str	r3, [r2, #0]
 800058c:	bf00      	nop
 800058e:	bf00      	nop
 8000590:	370c      	adds	r7, #12
 8000592:	46bd      	mov	sp, r7
 8000594:	bc80      	pop	{r7}
 8000596:	4770      	bx	lr
 8000598:	e000e180 	and	lr, r0, r0, lsl #3
 800059c:	e000e184 	and	lr, r0, r4, lsl #3

080005a0 <Configuration_EXTI>:
 80005a0:	b580      	push	{r7, lr}
 80005a2:	b084      	sub	sp, #16
 80005a4:	af00      	add	r7, sp, #0
 80005a6:	6078      	str	r0, [r7, #4]
 80005a8:	687b      	ldr	r3, [r7, #4]
 80005aa:	891b      	ldrh	r3, [r3, #8]
 80005ac:	813b      	strh	r3, [r7, #8]
 80005ae:	2308      	movs	r3, #8
 80005b0:	72bb      	strb	r3, [r7, #10]
 80005b2:	687b      	ldr	r3, [r7, #4]
 80005b4:	685b      	ldr	r3, [r3, #4]
 80005b6:	f107 0208 	add.w	r2, r7, #8
 80005ba:	4611      	mov	r1, r2
 80005bc:	4618      	mov	r0, r3
 80005be:	f000 fa54 	bl	8000a6a <MCAL_GPIO_Init>
 80005c2:	687b      	ldr	r3, [r7, #4]
 80005c4:	881b      	ldrh	r3, [r3, #0]
 80005c6:	089b      	lsrs	r3, r3, #2
 80005c8:	b29b      	uxth	r3, r3
 80005ca:	73fb      	strb	r3, [r7, #15]
 80005cc:	687b      	ldr	r3, [r7, #4]
 80005ce:	881b      	ldrh	r3, [r3, #0]
 80005d0:	b2db      	uxtb	r3, r3
 80005d2:	f003 0303 	and.w	r3, r3, #3
 80005d6:	b2db      	uxtb	r3, r3
 80005d8:	009b      	lsls	r3, r3, #2
 80005da:	73bb      	strb	r3, [r7, #14]
 80005dc:	4a5d      	ldr	r2, [pc, #372]	; (8000754 <Configuration_EXTI+0x1b4>)
 80005de:	7bfb      	ldrb	r3, [r7, #15]
 80005e0:	3302      	adds	r3, #2
 80005e2:	f852 2023 	ldr.w	r2, [r2, r3, lsl #2]
 80005e6:	7bbb      	ldrb	r3, [r7, #14]
 80005e8:	210f      	movs	r1, #15
 80005ea:	fa01 f303 	lsl.w	r3, r1, r3
 80005ee:	43db      	mvns	r3, r3
 80005f0:	4618      	mov	r0, r3
 80005f2:	4958      	ldr	r1, [pc, #352]	; (8000754 <Configuration_EXTI+0x1b4>)
 80005f4:	7bfb      	ldrb	r3, [r7, #15]
 80005f6:	4002      	ands	r2, r0
 80005f8:	3302      	adds	r3, #2
 80005fa:	f841 2023 	str.w	r2, [r1, r3, lsl #2]
 80005fe:	4a55      	ldr	r2, [pc, #340]	; (8000754 <Configuration_EXTI+0x1b4>)
 8000600:	7bfb      	ldrb	r3, [r7, #15]
 8000602:	3302      	adds	r3, #2
 8000604:	f852 2023 	ldr.w	r2, [r2, r3, lsl #2]
 8000608:	687b      	ldr	r3, [r7, #4]
 800060a:	685b      	ldr	r3, [r3, #4]
 800060c:	4952      	ldr	r1, [pc, #328]	; (8000758 <Configuration_EXTI+0x1b8>)
 800060e:	428b      	cmp	r3, r1
 8000610:	d016      	beq.n	8000640 <Configuration_EXTI+0xa0>
 8000612:	687b      	ldr	r3, [r7, #4]
 8000614:	685b      	ldr	r3, [r3, #4]
 8000616:	4951      	ldr	r1, [pc, #324]	; (800075c <Configuration_EXTI+0x1bc>)
 8000618:	428b      	cmp	r3, r1
 800061a:	d00f      	beq.n	800063c <Configuration_EXTI+0x9c>
 800061c:	687b      	ldr	r3, [r7, #4]
 800061e:	685b      	ldr	r3, [r3, #4]
 8000620:	494f      	ldr	r1, [pc, #316]	; (8000760 <Configuration_EXTI+0x1c0>)
 8000622:	428b      	cmp	r3, r1
 8000624:	d008      	beq.n	8000638 <Configuration_EXTI+0x98>
 8000626:	687b      	ldr	r3, [r7, #4]
 8000628:	685b      	ldr	r3, [r3, #4]
 800062a:	494b      	ldr	r1, [pc, #300]	; (8000758 <Configuration_EXTI+0x1b8>)
 800062c:	428b      	cmp	r3, r1
 800062e:	d101      	bne.n	8000634 <Configuration_EXTI+0x94>
 8000630:	2303      	movs	r3, #3
 8000632:	e006      	b.n	8000642 <Configuration_EXTI+0xa2>
 8000634:	2300      	movs	r3, #0
 8000636:	e004      	b.n	8000642 <Configuration_EXTI+0xa2>
 8000638:	2302      	movs	r3, #2
 800063a:	e002      	b.n	8000642 <Configuration_EXTI+0xa2>
 800063c:	2301      	movs	r3, #1
 800063e:	e000      	b.n	8000642 <Configuration_EXTI+0xa2>
 8000640:	2300      	movs	r3, #0
 8000642:	7bb9      	ldrb	r1, [r7, #14]
 8000644:	408b      	lsls	r3, r1
 8000646:	4618      	mov	r0, r3
 8000648:	4942      	ldr	r1, [pc, #264]	; (8000754 <Configuration_EXTI+0x1b4>)
 800064a:	7bfb      	ldrb	r3, [r7, #15]
 800064c:	4302      	orrs	r2, r0
 800064e:	3302      	adds	r3, #2
 8000650:	f841 2023 	str.w	r2, [r1, r3, lsl #2]
 8000654:	4b43      	ldr	r3, [pc, #268]	; (8000764 <Configuration_EXTI+0x1c4>)
 8000656:	689b      	ldr	r3, [r3, #8]
 8000658:	687a      	ldr	r2, [r7, #4]
 800065a:	8812      	ldrh	r2, [r2, #0]
 800065c:	4611      	mov	r1, r2
 800065e:	2201      	movs	r2, #1
 8000660:	408a      	lsls	r2, r1
 8000662:	43d2      	mvns	r2, r2
 8000664:	4611      	mov	r1, r2
 8000666:	4a3f      	ldr	r2, [pc, #252]	; (8000764 <Configuration_EXTI+0x1c4>)
 8000668:	400b      	ands	r3, r1
 800066a:	6093      	str	r3, [r2, #8]
 800066c:	4b3d      	ldr	r3, [pc, #244]	; (8000764 <Configuration_EXTI+0x1c4>)
 800066e:	68db      	ldr	r3, [r3, #12]
 8000670:	687a      	ldr	r2, [r7, #4]
 8000672:	8812      	ldrh	r2, [r2, #0]
 8000674:	4611      	mov	r1, r2
 8000676:	2201      	movs	r2, #1
 8000678:	408a      	lsls	r2, r1
 800067a:	43d2      	mvns	r2, r2
 800067c:	4611      	mov	r1, r2
 800067e:	4a39      	ldr	r2, [pc, #228]	; (8000764 <Configuration_EXTI+0x1c4>)
 8000680:	400b      	ands	r3, r1
 8000682:	60d3      	str	r3, [r2, #12]
 8000684:	687b      	ldr	r3, [r7, #4]
 8000686:	7b1b      	ldrb	r3, [r3, #12]
 8000688:	2b00      	cmp	r3, #0
 800068a:	d10b      	bne.n	80006a4 <Configuration_EXTI+0x104>
 800068c:	4b35      	ldr	r3, [pc, #212]	; (8000764 <Configuration_EXTI+0x1c4>)
 800068e:	689b      	ldr	r3, [r3, #8]
 8000690:	687a      	ldr	r2, [r7, #4]
 8000692:	8812      	ldrh	r2, [r2, #0]
 8000694:	4611      	mov	r1, r2
 8000696:	2201      	movs	r2, #1
 8000698:	408a      	lsls	r2, r1
 800069a:	4611      	mov	r1, r2
 800069c:	4a31      	ldr	r2, [pc, #196]	; (8000764 <Configuration_EXTI+0x1c4>)
 800069e:	430b      	orrs	r3, r1
 80006a0:	6093      	str	r3, [r2, #8]
 80006a2:	e025      	b.n	80006f0 <Configuration_EXTI+0x150>
 80006a4:	687b      	ldr	r3, [r7, #4]
 80006a6:	7b1b      	ldrb	r3, [r3, #12]
 80006a8:	2b01      	cmp	r3, #1
 80006aa:	d10b      	bne.n	80006c4 <Configuration_EXTI+0x124>
 80006ac:	4b2d      	ldr	r3, [pc, #180]	; (8000764 <Configuration_EXTI+0x1c4>)
 80006ae:	68db      	ldr	r3, [r3, #12]
 80006b0:	687a      	ldr	r2, [r7, #4]
 80006b2:	8812      	ldrh	r2, [r2, #0]
 80006b4:	4611      	mov	r1, r2
 80006b6:	2201      	movs	r2, #1
 80006b8:	408a      	lsls	r2, r1
 80006ba:	4611      	mov	r1, r2
 80006bc:	4a29      	ldr	r2, [pc, #164]	; (8000764 <Configuration_EXTI+0x1c4>)
 80006be:	430b      	orrs	r3, r1
 80006c0:	60d3      	str	r3, [r2, #12]
 80006c2:	e015      	b.n	80006f0 <Configuration_EXTI+0x150>
 80006c4:	4b27      	ldr	r3, [pc, #156]	; (8000764 <Configuration_EXTI+0x1c4>)
 80006c6:	689b      	ldr	r3, [r3, #8]
 80006c8:	687a      	ldr	r2, [r7, #4]
 80006ca:	8812      	ldrh	r2, [r2, #0]
 80006cc:	4611      	mov	r1, r2
 80006ce:	2201      	movs	r2, #1
 80006d0:	408a      	lsls	r2, r1
 80006d2:	4611      	mov	r1, r2
 80006d4:	4a23      	ldr	r2, [pc, #140]	; (8000764 <Configuration_EXTI+0x1c4>)
 80006d6:	430b      	orrs	r3, r1
 80006d8:	6093      	str	r3, [r2, #8]
 80006da:	4b22      	ldr	r3, [pc, #136]	; (8000764 <Configuration_EXTI+0x1c4>)
 80006dc:	68db      	ldr	r3, [r3, #12]
 80006de:	687a      	ldr	r2, [r7, #4]
 80006e0:	8812      	ldrh	r2, [r2, #0]
 80006e2:	4611      	mov	r1, r2
 80006e4:	2201      	movs	r2, #1
 80006e6:	408a      	lsls	r2, r1
 80006e8:	4611      	mov	r1, r2
 80006ea:	4a1e      	ldr	r2, [pc, #120]	; (8000764 <Configuration_EXTI+0x1c4>)
 80006ec:	430b      	orrs	r3, r1
 80006ee:	60d3      	str	r3, [r2, #12]
 80006f0:	687b      	ldr	r3, [r7, #4]
 80006f2:	881b      	ldrh	r3, [r3, #0]
 80006f4:	4619      	mov	r1, r3
 80006f6:	687b      	ldr	r3, [r7, #4]
 80006f8:	691b      	ldr	r3, [r3, #16]
 80006fa:	4a1b      	ldr	r2, [pc, #108]	; (8000768 <Configuration_EXTI+0x1c8>)
 80006fc:	f842 3021 	str.w	r3, [r2, r1, lsl #2]
 8000700:	687b      	ldr	r3, [r7, #4]
 8000702:	7b5b      	ldrb	r3, [r3, #13]
 8000704:	2b01      	cmp	r3, #1
 8000706:	d110      	bne.n	800072a <Configuration_EXTI+0x18a>
 8000708:	4b16      	ldr	r3, [pc, #88]	; (8000764 <Configuration_EXTI+0x1c4>)
 800070a:	681b      	ldr	r3, [r3, #0]
 800070c:	687a      	ldr	r2, [r7, #4]
 800070e:	8812      	ldrh	r2, [r2, #0]
 8000710:	4611      	mov	r1, r2
 8000712:	2201      	movs	r2, #1
 8000714:	408a      	lsls	r2, r1
 8000716:	4611      	mov	r1, r2
 8000718:	4a12      	ldr	r2, [pc, #72]	; (8000764 <Configuration_EXTI+0x1c4>)
 800071a:	430b      	orrs	r3, r1
 800071c:	6013      	str	r3, [r2, #0]
 800071e:	687b      	ldr	r3, [r7, #4]
 8000720:	881b      	ldrh	r3, [r3, #0]
 8000722:	4618      	mov	r0, r3
 8000724:	f7ff fe70 	bl	8000408 <Enable_NVIC>
 8000728:	e010      	b.n	800074c <Configuration_EXTI+0x1ac>
 800072a:	4b0e      	ldr	r3, [pc, #56]	; (8000764 <Configuration_EXTI+0x1c4>)
 800072c:	681b      	ldr	r3, [r3, #0]
 800072e:	687a      	ldr	r2, [r7, #4]
 8000730:	8812      	ldrh	r2, [r2, #0]
 8000732:	4611      	mov	r1, r2
 8000734:	2201      	movs	r2, #1
 8000736:	408a      	lsls	r2, r1
 8000738:	43d2      	mvns	r2, r2
 800073a:	4611      	mov	r1, r2
 800073c:	4a09      	ldr	r2, [pc, #36]	; (8000764 <Configuration_EXTI+0x1c4>)
 800073e:	400b      	ands	r3, r1
 8000740:	6013      	str	r3, [r2, #0]
 8000742:	687b      	ldr	r3, [r7, #4]
 8000744:	881b      	ldrh	r3, [r3, #0]
 8000746:	4618      	mov	r0, r3
 8000748:	f7ff fec4 	bl	80004d4 <Disable_NVIC>
 800074c:	bf00      	nop
 800074e:	3710      	adds	r7, #16
 8000750:	46bd      	mov	sp, r7
 8000752:	bd80      	pop	{r7, pc}
 8000754:	40010000 	andmi	r0, r1, r0
 8000758:	40010800 	andmi	r0, r1, r0, lsl #16
 800075c:	40010c00 	andmi	r0, r1, r0, lsl #24
 8000760:	40011000 	andmi	r1, r1, r0
 8000764:	40010400 	andmi	r0, r1, r0, lsl #8
 8000768:	20000084 	andcs	r0, r0, r4, lsl #1

0800076c <MCAL_EXTI_GPIO_Init>:
 800076c:	b580      	push	{r7, lr}
 800076e:	b082      	sub	sp, #8
 8000770:	af00      	add	r7, sp, #0
 8000772:	6078      	str	r0, [r7, #4]
 8000774:	6878      	ldr	r0, [r7, #4]
 8000776:	f7ff ff13 	bl	80005a0 <Configuration_EXTI>
 800077a:	bf00      	nop
 800077c:	3708      	adds	r7, #8
 800077e:	46bd      	mov	sp, r7
 8000780:	bd80      	pop	{r7, pc}
	...

08000784 <EXTI0_IRQHandler>:
 8000784:	b580      	push	{r7, lr}
 8000786:	af00      	add	r7, sp, #0
 8000788:	4b05      	ldr	r3, [pc, #20]	; (80007a0 <EXTI0_IRQHandler+0x1c>)
 800078a:	695b      	ldr	r3, [r3, #20]
 800078c:	4a04      	ldr	r2, [pc, #16]	; (80007a0 <EXTI0_IRQHandler+0x1c>)
 800078e:	f043 0301 	orr.w	r3, r3, #1
 8000792:	6153      	str	r3, [r2, #20]
 8000794:	4b03      	ldr	r3, [pc, #12]	; (80007a4 <EXTI0_IRQHandler+0x20>)
 8000796:	681b      	ldr	r3, [r3, #0]
 8000798:	4798      	blx	r3
 800079a:	bf00      	nop
 800079c:	bd80      	pop	{r7, pc}
 800079e:	bf00      	nop
 80007a0:	40010400 	andmi	r0, r1, r0, lsl #8
 80007a4:	20000084 	andcs	r0, r0, r4, lsl #1

080007a8 <EXTI1_IRQHandler>:
 80007a8:	b580      	push	{r7, lr}
 80007aa:	af00      	add	r7, sp, #0
 80007ac:	4b05      	ldr	r3, [pc, #20]	; (80007c4 <EXTI1_IRQHandler+0x1c>)
 80007ae:	695b      	ldr	r3, [r3, #20]
 80007b0:	4a04      	ldr	r2, [pc, #16]	; (80007c4 <EXTI1_IRQHandler+0x1c>)
 80007b2:	f043 0302 	orr.w	r3, r3, #2
 80007b6:	6153      	str	r3, [r2, #20]
 80007b8:	4b03      	ldr	r3, [pc, #12]	; (80007c8 <EXTI1_IRQHandler+0x20>)
 80007ba:	685b      	ldr	r3, [r3, #4]
 80007bc:	4798      	blx	r3
 80007be:	bf00      	nop
 80007c0:	bd80      	pop	{r7, pc}
 80007c2:	bf00      	nop
 80007c4:	40010400 	andmi	r0, r1, r0, lsl #8
 80007c8:	20000084 	andcs	r0, r0, r4, lsl #1

080007cc <EXTI2_IRQHandler>:
 80007cc:	b580      	push	{r7, lr}
 80007ce:	af00      	add	r7, sp, #0
 80007d0:	4b05      	ldr	r3, [pc, #20]	; (80007e8 <EXTI2_IRQHandler+0x1c>)
 80007d2:	695b      	ldr	r3, [r3, #20]
 80007d4:	4a04      	ldr	r2, [pc, #16]	; (80007e8 <EXTI2_IRQHandler+0x1c>)
 80007d6:	f043 0304 	orr.w	r3, r3, #4
 80007da:	6153      	str	r3, [r2, #20]
 80007dc:	4b03      	ldr	r3, [pc, #12]	; (80007ec <EXTI2_IRQHandler+0x20>)
 80007de:	689b      	ldr	r3, [r3, #8]
 80007e0:	4798      	blx	r3
 80007e2:	bf00      	nop
 80007e4:	bd80      	pop	{r7, pc}
 80007e6:	bf00      	nop
 80007e8:	40010400 	andmi	r0, r1, r0, lsl #8
 80007ec:	20000084 	andcs	r0, r0, r4, lsl #1

080007f0 <EXTI3_IRQHandler>:
 80007f0:	b580      	push	{r7, lr}
 80007f2:	af00      	add	r7, sp, #0
 80007f4:	4b05      	ldr	r3, [pc, #20]	; (800080c <EXTI3_IRQHandler+0x1c>)
 80007f6:	695b      	ldr	r3, [r3, #20]
 80007f8:	4a04      	ldr	r2, [pc, #16]	; (800080c <EXTI3_IRQHandler+0x1c>)
 80007fa:	f043 0308 	orr.w	r3, r3, #8
 80007fe:	6153      	str	r3, [r2, #20]
 8000800:	4b03      	ldr	r3, [pc, #12]	; (8000810 <EXTI3_IRQHandler+0x20>)
 8000802:	68db      	ldr	r3, [r3, #12]
 8000804:	4798      	blx	r3
 8000806:	bf00      	nop
 8000808:	bd80      	pop	{r7, pc}
 800080a:	bf00      	nop
 800080c:	40010400 	andmi	r0, r1, r0, lsl #8
 8000810:	20000084 	andcs	r0, r0, r4, lsl #1

08000814 <EXTI4_IRQHandler>:
 8000814:	b580      	push	{r7, lr}
 8000816:	af00      	add	r7, sp, #0
 8000818:	4b05      	ldr	r3, [pc, #20]	; (8000830 <EXTI4_IRQHandler+0x1c>)
 800081a:	695b      	ldr	r3, [r3, #20]
 800081c:	4a04      	ldr	r2, [pc, #16]	; (8000830 <EXTI4_IRQHandler+0x1c>)
 800081e:	f043 0310 	orr.w	r3, r3, #16
 8000822:	6153      	str	r3, [r2, #20]
 8000824:	4b03      	ldr	r3, [pc, #12]	; (8000834 <EXTI4_IRQHandler+0x20>)
 8000826:	691b      	ldr	r3, [r3, #16]
 8000828:	4798      	blx	r3
 800082a:	bf00      	nop
 800082c:	bd80      	pop	{r7, pc}
 800082e:	bf00      	nop
 8000830:	40010400 	andmi	r0, r1, r0, lsl #8
 8000834:	20000084 	andcs	r0, r0, r4, lsl #1

08000838 <EXTI9_5_IRQHandler>:
 8000838:	b580      	push	{r7, lr}
 800083a:	af00      	add	r7, sp, #0
 800083c:	4b26      	ldr	r3, [pc, #152]	; (80008d8 <EXTI9_5_IRQHandler+0xa0>)
 800083e:	695b      	ldr	r3, [r3, #20]
 8000840:	f003 0320 	and.w	r3, r3, #32
 8000844:	2b00      	cmp	r3, #0
 8000846:	d008      	beq.n	800085a <EXTI9_5_IRQHandler+0x22>
 8000848:	4b23      	ldr	r3, [pc, #140]	; (80008d8 <EXTI9_5_IRQHandler+0xa0>)
 800084a:	695b      	ldr	r3, [r3, #20]
 800084c:	4a22      	ldr	r2, [pc, #136]	; (80008d8 <EXTI9_5_IRQHandler+0xa0>)
 800084e:	f043 0320 	orr.w	r3, r3, #32
 8000852:	6153      	str	r3, [r2, #20]
 8000854:	4b21      	ldr	r3, [pc, #132]	; (80008dc <EXTI9_5_IRQHandler+0xa4>)
 8000856:	695b      	ldr	r3, [r3, #20]
 8000858:	4798      	blx	r3
 800085a:	4b1f      	ldr	r3, [pc, #124]	; (80008d8 <EXTI9_5_IRQHandler+0xa0>)
 800085c:	695b      	ldr	r3, [r3, #20]
 800085e:	f003 0340 	and.w	r3, r3, #64	; 0x40
 8000862:	2b00      	cmp	r3, #0
 8000864:	d008      	beq.n	8000878 <EXTI9_5_IRQHandler+0x40>
 8000866:	4b1c      	ldr	r3, [pc, #112]	; (80008d8 <EXTI9_5_IRQHandler+0xa0>)
 8000868:	695b      	ldr	r3, [r3, #20]
 800086a:	4a1b      	ldr	r2, [pc, #108]	; (80008d8 <EXTI9_5_IRQHandler+0xa0>)
 800086c:	f043 0340 	orr.w	r3, r3, #64	; 0x40
 8000870:	6153      	str	r3, [r2, #20]
 8000872:	4b1a      	ldr	r3, [pc, #104]	; (80008dc <EXTI9_5_IRQHandler+0xa4>)
 8000874:	699b      	ldr	r3, [r3, #24]
 8000876:	4798      	blx	r3
 8000878:	4b17      	ldr	r3, [pc, #92]	; (80008d8 <EXTI9_5_IRQHandler+0xa0>)
 800087a:	695b      	ldr	r3, [r3, #20]
 800087c:	f003 0380 	and.w	r3, r3, #128	; 0x80
 8000880:	2b00      	cmp	r3, #0
 8000882:	d008      	beq.n	8000896 <EXTI9_5_IRQHandler+0x5e>
 8000884:	4b14      	ldr	r3, [pc, #80]	; (80008d8 <EXTI9_5_IRQHandler+0xa0>)
 8000886:	695b      	ldr	r3, [r3, #20]
 8000888:	4a13      	ldr	r2, [pc, #76]	; (80008d8 <EXTI9_5_IRQHandler+0xa0>)
 800088a:	f043 0380 	orr.w	r3, r3, #128	; 0x80
 800088e:	6153      	str	r3, [r2, #20]
 8000890:	4b12      	ldr	r3, [pc, #72]	; (80008dc <EXTI9_5_IRQHandler+0xa4>)
 8000892:	69db      	ldr	r3, [r3, #28]
 8000894:	4798      	blx	r3
 8000896:	4b10      	ldr	r3, [pc, #64]	; (80008d8 <EXTI9_5_IRQHandler+0xa0>)
 8000898:	695b      	ldr	r3, [r3, #20]
 800089a:	f403 7380 	and.w	r3, r3, #256	; 0x100
 800089e:	2b00      	cmp	r3, #0
 80008a0:	d008      	beq.n	80008b4 <EXTI9_5_IRQHandler+0x7c>
 80008a2:	4b0d      	ldr	r3, [pc, #52]	; (80008d8 <EXTI9_5_IRQHandler+0xa0>)
 80008a4:	695b      	ldr	r3, [r3, #20]
 80008a6:	4a0c      	ldr	r2, [pc, #48]	; (80008d8 <EXTI9_5_IRQHandler+0xa0>)
 80008a8:	f443 7380 	orr.w	r3, r3, #256	; 0x100
 80008ac:	6153      	str	r3, [r2, #20]
 80008ae:	4b0b      	ldr	r3, [pc, #44]	; (80008dc <EXTI9_5_IRQHandler+0xa4>)
 80008b0:	6a1b      	ldr	r3, [r3, #32]
 80008b2:	4798      	blx	r3
 80008b4:	4b08      	ldr	r3, [pc, #32]	; (80008d8 <EXTI9_5_IRQHandler+0xa0>)
 80008b6:	695b      	ldr	r3, [r3, #20]
 80008b8:	f403 7300 	and.w	r3, r3, #512	; 0x200
 80008bc:	2b00      	cmp	r3, #0
 80008be:	d008      	beq.n	80008d2 <EXTI9_5_IRQHandler+0x9a>
 80008c0:	4b05      	ldr	r3, [pc, #20]	; (80008d8 <EXTI9_5_IRQHandler+0xa0>)
 80008c2:	695b      	ldr	r3, [r3, #20]
 80008c4:	4a04      	ldr	r2, [pc, #16]	; (80008d8 <EXTI9_5_IRQHandler+0xa0>)
 80008c6:	f443 7300 	orr.w	r3, r3, #512	; 0x200
 80008ca:	6153      	str	r3, [r2, #20]
 80008cc:	4b03      	ldr	r3, [pc, #12]	; (80008dc <EXTI9_5_IRQHandler+0xa4>)
 80008ce:	6a5b      	ldr	r3, [r3, #36]	; 0x24
 80008d0:	4798      	blx	r3
 80008d2:	bf00      	nop
 80008d4:	bd80      	pop	{r7, pc}
 80008d6:	bf00      	nop
 80008d8:	40010400 	andmi	r0, r1, r0, lsl #8
 80008dc:	20000084 	andcs	r0, r0, r4, lsl #1

080008e0 <EXTI15_10_IRQHandler>:
 80008e0:	b580      	push	{r7, lr}
 80008e2:	af00      	add	r7, sp, #0
 80008e4:	4b2d      	ldr	r3, [pc, #180]	; (800099c <EXTI15_10_IRQHandler+0xbc>)
 80008e6:	695b      	ldr	r3, [r3, #20]
 80008e8:	f403 6380 	and.w	r3, r3, #1024	; 0x400
 80008ec:	2b00      	cmp	r3, #0
 80008ee:	d008      	beq.n	8000902 <EXTI15_10_IRQHandler+0x22>
 80008f0:	4b2a      	ldr	r3, [pc, #168]	; (800099c <EXTI15_10_IRQHandler+0xbc>)
 80008f2:	695b      	ldr	r3, [r3, #20]
 80008f4:	4a29      	ldr	r2, [pc, #164]	; (800099c <EXTI15_10_IRQHandler+0xbc>)
 80008f6:	f443 6380 	orr.w	r3, r3, #1024	; 0x400
 80008fa:	6153      	str	r3, [r2, #20]
 80008fc:	4b28      	ldr	r3, [pc, #160]	; (80009a0 <EXTI15_10_IRQHandler+0xc0>)
 80008fe:	6a9b      	ldr	r3, [r3, #40]	; 0x28
 8000900:	4798      	blx	r3
 8000902:	4b26      	ldr	r3, [pc, #152]	; (800099c <EXTI15_10_IRQHandler+0xbc>)
 8000904:	695b      	ldr	r3, [r3, #20]
 8000906:	f403 6300 	and.w	r3, r3, #2048	; 0x800
 800090a:	2b00      	cmp	r3, #0
 800090c:	d008      	beq.n	8000920 <EXTI15_10_IRQHandler+0x40>
 800090e:	4b23      	ldr	r3, [pc, #140]	; (800099c <EXTI15_10_IRQHandler+0xbc>)
 8000910:	695b      	ldr	r3, [r3, #20]
 8000912:	4a22      	ldr	r2, [pc, #136]	; (800099c <EXTI15_10_IRQHandler+0xbc>)
 8000914:	f443 6300 	orr.w	r3, r3, #2048	; 0x800
 8000918:	6153      	str	r3, [r2, #20]
 800091a:	4b21      	ldr	r3, [pc, #132]	; (80009a0 <EXTI15_10_IRQHandler+0xc0>)
 800091c:	6adb      	ldr	r3, [r3, #44]	; 0x2c
 800091e:	4798      	blx	r3
 8000920:	4b1e      	ldr	r3, [pc, #120]	; (800099c <EXTI15_10_IRQHandler+0xbc>)
 8000922:	695b      	ldr	r3, [r3, #20]
 8000924:	f403 5380 	and.w	r3, r3, #4096	; 0x1000
 8000928:	2b00      	cmp	r3, #0
 800092a:	d008      	beq.n	800093e <EXTI15_10_IRQHandler+0x5e>
 800092c:	4b1b      	ldr	r3, [pc, #108]	; (800099c <EXTI15_10_IRQHandler+0xbc>)
 800092e:	695b      	ldr	r3, [r3, #20]
 8000930:	4a1a      	ldr	r2, [pc, #104]	; (800099c <EXTI15_10_IRQHandler+0xbc>)
 8000932:	f443 5380 	orr.w	r3, r3, #4096	; 0x1000
 8000936:	6153      	str	r3, [r2, #20]
 8000938:	4b19      	ldr	r3, [pc, #100]	; (80009a0 <EXTI15_10_IRQHandler+0xc0>)
 800093a:	6b1b      	ldr	r3, [r3, #48]	; 0x30
 800093c:	4798      	blx	r3
 800093e:	4b17      	ldr	r3, [pc, #92]	; (800099c <EXTI15_10_IRQHandler+0xbc>)
 8000940:	695b      	ldr	r3, [r3, #20]
 8000942:	f403 5300 	and.w	r3, r3, #8192	; 0x2000
 8000946:	2b00      	cmp	r3, #0
 8000948:	d008      	beq.n	800095c <EXTI15_10_IRQHandler+0x7c>
 800094a:	4b14      	ldr	r3, [pc, #80]	; (800099c <EXTI15_10_IRQHandler+0xbc>)
 800094c:	695b      	ldr	r3, [r3, #20]
 800094e:	4a13      	ldr	r2, [pc, #76]	; (800099c <EXTI15_10_IRQHandler+0xbc>)
 8000950:	f443 5300 	orr.w	r3, r3, #8192	; 0x2000
 8000954:	6153      	str	r3, [r2, #20]
 8000956:	4b12      	ldr	r3, [pc, #72]	; (80009a0 <EXTI15_10_IRQHandler+0xc0>)
 8000958:	6b5b      	ldr	r3, [r3, #52]	; 0x34
 800095a:	4798      	blx	r3
 800095c:	4b0f      	ldr	r3, [pc, #60]	; (800099c <EXTI15_10_IRQHandler+0xbc>)
 800095e:	695b      	ldr	r3, [r3, #20]
 8000960:	f403 4380 	and.w	r3, r3, #16384	; 0x4000
 8000964:	2b00      	cmp	r3, #0
 8000966:	d008      	beq.n	800097a <EXTI15_10_IRQHandler+0x9a>
 8000968:	4b0c      	ldr	r3, [pc, #48]	; (800099c <EXTI15_10_IRQHandler+0xbc>)
 800096a:	695b      	ldr	r3, [r3, #20]
 800096c:	4a0b      	ldr	r2, [pc, #44]	; (800099c <EXTI15_10_IRQHandler+0xbc>)
 800096e:	f443 4380 	orr.w	r3, r3, #16384	; 0x4000
 8000972:	6153      	str	r3, [r2, #20]
 8000974:	4b0a      	ldr	r3, [pc, #40]	; (80009a0 <EXTI15_10_IRQHandler+0xc0>)
 8000976:	6b9b      	ldr	r3, [r3, #56]	; 0x38
 8000978:	4798      	blx	r3
 800097a:	4b08      	ldr	r3, [pc, #32]	; (800099c <EXTI15_10_IRQHandler+0xbc>)
 800097c:	695b      	ldr	r3, [r3, #20]
 800097e:	f403 4300 	and.w	r3, r3, #32768	; 0x8000
 8000982:	2b00      	cmp	r3, #0
 8000984:	d008      	beq.n	8000998 <EXTI15_10_IRQHandler+0xb8>
 8000986:	4b05      	ldr	r3, [pc, #20]	; (800099c <EXTI15_10_IRQHandler+0xbc>)
 8000988:	695b      	ldr	r3, [r3, #20]
 800098a:	4a04      	ldr	r2, [pc, #16]	; (800099c <EXTI15_10_IRQHandler+0xbc>)
 800098c:	f443 4300 	orr.w	r3, r3, #32768	; 0x8000
 8000990:	6153      	str	r3, [r2, #20]
 8000992:	4b03      	ldr	r3, [pc, #12]	; (80009a0 <EXTI15_10_IRQHandler+0xc0>)
 8000994:	6bdb      	ldr	r3, [r3, #60]	; 0x3c
 8000996:	4798      	blx	r3
 8000998:	bf00      	nop
 800099a:	bd80      	pop	{r7, pc}
 800099c:	40010400 	andmi	r0, r1, r0, lsl #8
 80009a0:	20000084 	andcs	r0, r0, r4, lsl #1

080009a4 <get_position>:
 80009a4:	b480      	push	{r7}
 80009a6:	b083      	sub	sp, #12
 80009a8:	af00      	add	r7, sp, #0
 80009aa:	4603      	mov	r3, r0
 80009ac:	80fb      	strh	r3, [r7, #6]
 80009ae:	88fb      	ldrh	r3, [r7, #6]
 80009b0:	2b80      	cmp	r3, #128	; 0x80
 80009b2:	d042      	beq.n	8000a3a <get_position+0x96>
 80009b4:	2b80      	cmp	r3, #128	; 0x80
 80009b6:	dc11      	bgt.n	80009dc <get_position+0x38>
 80009b8:	2b08      	cmp	r3, #8
 80009ba:	d036      	beq.n	8000a2a <get_position+0x86>
 80009bc:	2b08      	cmp	r3, #8
 80009be:	dc06      	bgt.n	80009ce <get_position+0x2a>
 80009c0:	2b02      	cmp	r3, #2
 80009c2:	d02e      	beq.n	8000a22 <get_position+0x7e>
 80009c4:	2b04      	cmp	r3, #4
 80009c6:	d02e      	beq.n	8000a26 <get_position+0x82>
 80009c8:	2b01      	cmp	r3, #1
 80009ca:	d028      	beq.n	8000a1e <get_position+0x7a>
 80009cc:	e047      	b.n	8000a5e <get_position+0xba>
 80009ce:	2b20      	cmp	r3, #32
 80009d0:	d02f      	beq.n	8000a32 <get_position+0x8e>
 80009d2:	2b40      	cmp	r3, #64	; 0x40
 80009d4:	d02f      	beq.n	8000a36 <get_position+0x92>
 80009d6:	2b10      	cmp	r3, #16
 80009d8:	d029      	beq.n	8000a2e <get_position+0x8a>
 80009da:	e040      	b.n	8000a5e <get_position+0xba>
 80009dc:	f5b3 6f00 	cmp.w	r3, #2048	; 0x800
 80009e0:	d033      	beq.n	8000a4a <get_position+0xa6>
 80009e2:	f5b3 6f00 	cmp.w	r3, #2048	; 0x800
 80009e6:	dc09      	bgt.n	80009fc <get_position+0x58>
 80009e8:	f5b3 7f00 	cmp.w	r3, #512	; 0x200
 80009ec:	d029      	beq.n	8000a42 <get_position+0x9e>
 80009ee:	f5b3 6f80 	cmp.w	r3, #1024	; 0x400
 80009f2:	d028      	beq.n	8000a46 <get_position+0xa2>
 80009f4:	f5b3 7f80 	cmp.w	r3, #256	; 0x100
 80009f8:	d021      	beq.n	8000a3e <get_position+0x9a>
 80009fa:	e030      	b.n	8000a5e <get_position+0xba>
 80009fc:	f5b3 5f00 	cmp.w	r3, #8192	; 0x2000
 8000a00:	d027      	beq.n	8000a52 <get_position+0xae>
 8000a02:	f5b3 5f00 	cmp.w	r3, #8192	; 0x2000
 8000a06:	dc03      	bgt.n	8000a10 <get_position+0x6c>
 8000a08:	f5b3 5f80 	cmp.w	r3, #4096	; 0x1000
 8000a0c:	d01f      	beq.n	8000a4e <get_position+0xaa>
 8000a0e:	e026      	b.n	8000a5e <get_position+0xba>
 8000a10:	f5b3 4f80 	cmp.w	r3, #16384	; 0x4000
 8000a14:	d01f      	beq.n	8000a56 <get_position+0xb2>
 8000a16:	f5b3 4f00 	cmp.w	r3, #32768	; 0x8000
 8000a1a:	d01e      	beq.n	8000a5a <get_position+0xb6>
 8000a1c:	e01f      	b.n	8000a5e <get_position+0xba>
 8000a1e:	2300      	movs	r3, #0
 8000a20:	e01e      	b.n	8000a60 <get_position+0xbc>
 8000a22:	2304      	movs	r3, #4
 8000a24:	e01c      	b.n	8000a60 <get_position+0xbc>
 8000a26:	2308      	movs	r3, #8
 8000a28:	e01a      	b.n	8000a60 <get_position+0xbc>
 8000a2a:	230c      	movs	r3, #12
 8000a2c:	e018      	b.n	8000a60 <get_position+0xbc>
 8000a2e:	2310      	movs	r3, #16
 8000a30:	e016      	b.n	8000a60 <get_position+0xbc>
 8000a32:	2314      	movs	r3, #20
 8000a34:	e014      	b.n	8000a60 <get_position+0xbc>
 8000a36:	2318      	movs	r3, #24
 8000a38:	e012      	b.n	8000a60 <get_position+0xbc>
 8000a3a:	231c      	movs	r3, #28
 8000a3c:	e010      	b.n	8000a60 <get_position+0xbc>
 8000a3e:	2300      	movs	r3, #0
 8000a40:	e00e      	b.n	8000a60 <get_position+0xbc>
 8000a42:	2304      	movs	r3, #4
 8000a44:	e00c      	b.n	8000a60 <get_position+0xbc>
 8000a46:	2308      	movs	r3, #8
 8000a48:	e00a      	b.n	8000a60 <get_position+0xbc>
 8000a4a:	230c      	movs	r3, #12
 8000a4c:	e008      	b.n	8000a60 <get_position+0xbc>
 8000a4e:	2310      	movs	r3, #16
 8000a50:	e006      	b.n	8000a60 <get_position+0xbc>
 8000a52:	2314      	movs	r3, #20
 8000a54:	e004      	b.n	8000a60 <get_position+0xbc>
 8000a56:	2318      	movs	r3, #24
 8000a58:	e002      	b.n	8000a60 <get_position+0xbc>
 8000a5a:	231c      	movs	r3, #28
 8000a5c:	e000      	b.n	8000a60 <get_position+0xbc>
 8000a5e:	2300      	movs	r3, #0
 8000a60:	4618      	mov	r0, r3
 8000a62:	370c      	adds	r7, #12
 8000a64:	46bd      	mov	sp, r7
 8000a66:	bc80      	pop	{r7}
 8000a68:	4770      	bx	lr

08000a6a <MCAL_GPIO_Init>:
 8000a6a:	b590      	push	{r4, r7, lr}
 8000a6c:	b085      	sub	sp, #20
 8000a6e:	af00      	add	r7, sp, #0
 8000a70:	6078      	str	r0, [r7, #4]
 8000a72:	6039      	str	r1, [r7, #0]
 8000a74:	2300      	movs	r3, #0
 8000a76:	60bb      	str	r3, [r7, #8]
 8000a78:	2300      	movs	r3, #0
 8000a7a:	73fb      	strb	r3, [r7, #15]
 8000a7c:	683b      	ldr	r3, [r7, #0]
 8000a7e:	881b      	ldrh	r3, [r3, #0]
 8000a80:	2bff      	cmp	r3, #255	; 0xff
 8000a82:	d801      	bhi.n	8000a88 <MCAL_GPIO_Init+0x1e>
 8000a84:	687b      	ldr	r3, [r7, #4]
 8000a86:	e001      	b.n	8000a8c <MCAL_GPIO_Init+0x22>
 8000a88:	687b      	ldr	r3, [r7, #4]
 8000a8a:	3304      	adds	r3, #4
 8000a8c:	60bb      	str	r3, [r7, #8]
 8000a8e:	683b      	ldr	r3, [r7, #0]
 8000a90:	881b      	ldrh	r3, [r3, #0]
 8000a92:	4618      	mov	r0, r3
 8000a94:	f7ff ff86 	bl	80009a4 <get_position>
 8000a98:	4603      	mov	r3, r0
 8000a9a:	461a      	mov	r2, r3
 8000a9c:	230f      	movs	r3, #15
 8000a9e:	4093      	lsls	r3, r2
 8000aa0:	43da      	mvns	r2, r3
 8000aa2:	68bb      	ldr	r3, [r7, #8]
 8000aa4:	681b      	ldr	r3, [r3, #0]
 8000aa6:	401a      	ands	r2, r3
 8000aa8:	68bb      	ldr	r3, [r7, #8]
 8000aaa:	601a      	str	r2, [r3, #0]
 8000aac:	683b      	ldr	r3, [r7, #0]
 8000aae:	789b      	ldrb	r3, [r3, #2]
 8000ab0:	2b07      	cmp	r3, #7
 8000ab2:	d00b      	beq.n	8000acc <MCAL_GPIO_Init+0x62>
 8000ab4:	683b      	ldr	r3, [r7, #0]
 8000ab6:	789b      	ldrb	r3, [r3, #2]
 8000ab8:	2b06      	cmp	r3, #6
 8000aba:	d007      	beq.n	8000acc <MCAL_GPIO_Init+0x62>
 8000abc:	683b      	ldr	r3, [r7, #0]
 8000abe:	789b      	ldrb	r3, [r3, #2]
 8000ac0:	2b05      	cmp	r3, #5
 8000ac2:	d003      	beq.n	8000acc <MCAL_GPIO_Init+0x62>
 8000ac4:	683b      	ldr	r3, [r7, #0]
 8000ac6:	789b      	ldrb	r3, [r3, #2]
 8000ac8:	2b04      	cmp	r3, #4
 8000aca:	d10e      	bne.n	8000aea <MCAL_GPIO_Init+0x80>
 8000acc:	683b      	ldr	r3, [r7, #0]
 8000ace:	789b      	ldrb	r3, [r3, #2]
 8000ad0:	3b04      	subs	r3, #4
 8000ad2:	009b      	lsls	r3, r3, #2
 8000ad4:	b25a      	sxtb	r2, r3
 8000ad6:	683b      	ldr	r3, [r7, #0]
 8000ad8:	78db      	ldrb	r3, [r3, #3]
 8000ada:	b25b      	sxtb	r3, r3
 8000adc:	4313      	orrs	r3, r2
 8000ade:	b25b      	sxtb	r3, r3
 8000ae0:	b2db      	uxtb	r3, r3
 8000ae2:	f003 030f 	and.w	r3, r3, #15
 8000ae6:	73fb      	strb	r3, [r7, #15]
 8000ae8:	e02c      	b.n	8000b44 <MCAL_GPIO_Init+0xda>
 8000aea:	683b      	ldr	r3, [r7, #0]
 8000aec:	789b      	ldrb	r3, [r3, #2]
 8000aee:	2b01      	cmp	r3, #1
 8000af0:	d003      	beq.n	8000afa <MCAL_GPIO_Init+0x90>
 8000af2:	683b      	ldr	r3, [r7, #0]
 8000af4:	789b      	ldrb	r3, [r3, #2]
 8000af6:	2b00      	cmp	r3, #0
 8000af8:	d107      	bne.n	8000b0a <MCAL_GPIO_Init+0xa0>
 8000afa:	683b      	ldr	r3, [r7, #0]
 8000afc:	789b      	ldrb	r3, [r3, #2]
 8000afe:	009b      	lsls	r3, r3, #2
 8000b00:	b2db      	uxtb	r3, r3
 8000b02:	f003 030f 	and.w	r3, r3, #15
 8000b06:	73fb      	strb	r3, [r7, #15]
 8000b08:	e01c      	b.n	8000b44 <MCAL_GPIO_Init+0xda>
 8000b0a:	683b      	ldr	r3, [r7, #0]
 8000b0c:	789b      	ldrb	r3, [r3, #2]
 8000b0e:	2b08      	cmp	r3, #8
 8000b10:	d102      	bne.n	8000b18 <MCAL_GPIO_Init+0xae>
 8000b12:	2304      	movs	r3, #4
 8000b14:	73fb      	strb	r3, [r7, #15]
 8000b16:	e015      	b.n	8000b44 <MCAL_GPIO_Init+0xda>
 8000b18:	2308      	movs	r3, #8
 8000b1a:	73fb      	strb	r3, [r7, #15]
 8000b1c:	683b      	ldr	r3, [r7, #0]
 8000b1e:	789b      	ldrb	r3, [r3, #2]
 8000b20:	2b02      	cmp	r3, #2
 8000b22:	d107      	bne.n	8000b34 <MCAL_GPIO_Init+0xca>
 8000b24:	687b      	ldr	r3, [r7, #4]
 8000b26:	68db      	ldr	r3, [r3, #12]
 8000b28:	683a      	ldr	r2, [r7, #0]
 8000b2a:	8812      	ldrh	r2, [r2, #0]
 8000b2c:	431a      	orrs	r2, r3
 8000b2e:	687b      	ldr	r3, [r7, #4]
 8000b30:	60da      	str	r2, [r3, #12]
 8000b32:	e007      	b.n	8000b44 <MCAL_GPIO_Init+0xda>
 8000b34:	687b      	ldr	r3, [r7, #4]
 8000b36:	68db      	ldr	r3, [r3, #12]
 8000b38:	683a      	ldr	r2, [r7, #0]
 8000b3a:	8812      	ldrh	r2, [r2, #0]
 8000b3c:	43d2      	mvns	r2, r2
 8000b3e:	401a      	ands	r2, r3
 8000b40:	687b      	ldr	r3, [r7, #4]
 8000b42:	60da      	str	r2, [r3, #12]
 8000b44:	7bfc      	ldrb	r4, [r7, #15]
 8000b46:	683b      	ldr	r3, [r7, #0]
 8000b48:	881b      	ldrh	r3, [r3, #0]
 8000b4a:	4618      	mov	r0, r3
 8000b4c:	f7ff ff2a 	bl	80009a4 <get_position>
 8000b50:	4603      	mov	r3, r0
 8000b52:	fa04 f203 	lsl.w	r2, r4, r3
 8000b56:	68bb      	ldr	r3, [r7, #8]
 8000b58:	681b      	ldr	r3, [r3, #0]
 8000b5a:	431a      	orrs	r2, r3
 8000b5c:	68bb      	ldr	r3, [r7, #8]
 8000b5e:	601a      	str	r2, [r3, #0]
 8000b60:	bf00      	nop
 8000b62:	3714      	adds	r7, #20
 8000b64:	46bd      	mov	sp, r7
 8000b66:	bd90      	pop	{r4, r7, pc}

08000b68 <Slave_Status>:
 8000b68:	b580      	push	{r7, lr}
 8000b6a:	b084      	sub	sp, #16
 8000b6c:	af00      	add	r7, sp, #0
 8000b6e:	6078      	str	r0, [r7, #4]
 8000b70:	460b      	mov	r3, r1
 8000b72:	70fb      	strb	r3, [r7, #3]
 8000b74:	687b      	ldr	r3, [r7, #4]
 8000b76:	4a30      	ldr	r2, [pc, #192]	; (8000c38 <Slave_Status+0xd0>)
 8000b78:	4293      	cmp	r3, r2
 8000b7a:	bf14      	ite	ne
 8000b7c:	2301      	movne	r3, #1
 8000b7e:	2300      	moveq	r3, #0
 8000b80:	b2db      	uxtb	r3, r3
 8000b82:	73fb      	strb	r3, [r7, #15]
 8000b84:	78fb      	ldrb	r3, [r7, #3]
 8000b86:	2b03      	cmp	r3, #3
 8000b88:	d851      	bhi.n	8000c2e <Slave_Status+0xc6>
 8000b8a:	a201      	add	r2, pc, #4	; (adr r2, 8000b90 <Slave_Status+0x28>)
 8000b8c:	f852 f023 	ldr.w	pc, [r2, r3, lsl #2]
 8000b90:	08000ba1 	stmdaeq	r0, {r0, r5, r7, r8, r9, fp}
 8000b94:	08000bc5 	stmdaeq	r0, {r0, r2, r6, r7, r8, r9, fp}
 8000b98:	08000bdd 	stmdaeq	r0, {r0, r2, r3, r4, r6, r7, r8, r9, fp}
 8000b9c:	08000c01 	stmdaeq	r0, {r0, sl, fp}
 8000ba0:	687b      	ldr	r3, [r7, #4]
 8000ba2:	699b      	ldr	r3, [r3, #24]
 8000ba4:	f003 0304 	and.w	r3, r3, #4
 8000ba8:	2b00      	cmp	r3, #0
 8000baa:	d03b      	beq.n	8000c24 <Slave_Status+0xbc>
 8000bac:	7bfa      	ldrb	r2, [r7, #15]
 8000bae:	4923      	ldr	r1, [pc, #140]	; (8000c3c <Slave_Status+0xd4>)
 8000bb0:	4613      	mov	r3, r2
 8000bb2:	00db      	lsls	r3, r3, #3
 8000bb4:	1a9b      	subs	r3, r3, r2
 8000bb6:	009b      	lsls	r3, r3, #2
 8000bb8:	440b      	add	r3, r1
 8000bba:	3318      	adds	r3, #24
 8000bbc:	681b      	ldr	r3, [r3, #0]
 8000bbe:	2000      	movs	r0, #0
 8000bc0:	4798      	blx	r3
 8000bc2:	e02f      	b.n	8000c24 <Slave_Status+0xbc>
 8000bc4:	7bfa      	ldrb	r2, [r7, #15]
 8000bc6:	491d      	ldr	r1, [pc, #116]	; (8000c3c <Slave_Status+0xd4>)
 8000bc8:	4613      	mov	r3, r2
 8000bca:	00db      	lsls	r3, r3, #3
 8000bcc:	1a9b      	subs	r3, r3, r2
 8000bce:	009b      	lsls	r3, r3, #2
 8000bd0:	440b      	add	r3, r1
 8000bd2:	3318      	adds	r3, #24
 8000bd4:	681b      	ldr	r3, [r3, #0]
 8000bd6:	2001      	movs	r0, #1
 8000bd8:	4798      	blx	r3
 8000bda:	e028      	b.n	8000c2e <Slave_Status+0xc6>
 8000bdc:	687b      	ldr	r3, [r7, #4]
 8000bde:	699b      	ldr	r3, [r3, #24]
 8000be0:	f003 0304 	and.w	r3, r3, #4
 8000be4:	2b00      	cmp	r3, #0
 8000be6:	d01f      	beq.n	8000c28 <Slave_Status+0xc0>
 8000be8:	7bfa      	ldrb	r2, [r7, #15]
 8000bea:	4914      	ldr	r1, [pc, #80]	; (8000c3c <Slave_Status+0xd4>)
 8000bec:	4613      	mov	r3, r2
 8000bee:	00db      	lsls	r3, r3, #3
 8000bf0:	1a9b      	subs	r3, r3, r2
 8000bf2:	009b      	lsls	r3, r3, #2
 8000bf4:	440b      	add	r3, r1
 8000bf6:	3318      	adds	r3, #24
 8000bf8:	681b      	ldr	r3, [r3, #0]
 8000bfa:	2002      	movs	r0, #2
 8000bfc:	4798      	blx	r3
 8000bfe:	e013      	b.n	8000c28 <Slave_Status+0xc0>
 8000c00:	687b      	ldr	r3, [r7, #4]
 8000c02:	699b      	ldr	r3, [r3, #24]
 8000c04:	f003 0304 	and.w	r3, r3, #4
 8000c08:	2b00      	cmp	r3, #0
 8000c0a:	d10f      	bne.n	8000c2c <Slave_Status+0xc4>
 8000c0c:	7bfa      	ldrb	r2, [r7, #15]
 8000c0e:	490b      	ldr	r1, [pc, #44]	; (8000c3c <Slave_Status+0xd4>)
 8000c10:	4613      	mov	r3, r2
 8000c12:	00db      	lsls	r3, r3, #3
 8000c14:	1a9b      	subs	r3, r3, r2
 8000c16:	009b      	lsls	r3, r3, #2
 8000c18:	440b      	add	r3, r1
 8000c1a:	3318      	adds	r3, #24
 8000c1c:	681b      	ldr	r3, [r3, #0]
 8000c1e:	2003      	movs	r0, #3
 8000c20:	4798      	blx	r3
 8000c22:	e003      	b.n	8000c2c <Slave_Status+0xc4>
 8000c24:	bf00      	nop
 8000c26:	e002      	b.n	8000c2e <Slave_Status+0xc6>
 8000c28:	bf00      	nop
 8000c2a:	e000      	b.n	8000c2e <Slave_Status+0xc6>
 8000c2c:	bf00      	nop
 8000c2e:	bf00      	nop
 8000c30:	3710      	adds	r7, #16
 8000c32:	46bd      	mov	sp, r7
 8000c34:	bd80      	pop	{r7, pc}
 8000c36:	bf00      	nop
 8000c38:	40005400 	andmi	r5, r0, r0, lsl #8
 8000c3c:	20000024 	andcs	r0, r0, r4, lsr #32

08000c40 <I2C1_EV_IRQHandler>:
 8000c40:	b580      	push	{r7, lr}
 8000c42:	b084      	sub	sp, #16
 8000c44:	af00      	add	r7, sp, #0
 8000c46:	2300      	movs	r3, #0
 8000c48:	603b      	str	r3, [r7, #0]
 8000c4a:	4b36      	ldr	r3, [pc, #216]	; (8000d24 <I2C1_EV_IRQHandler+0xe4>)
 8000c4c:	695b      	ldr	r3, [r3, #20]
 8000c4e:	f003 0310 	and.w	r3, r3, #16
 8000c52:	60fb      	str	r3, [r7, #12]
 8000c54:	4b33      	ldr	r3, [pc, #204]	; (8000d24 <I2C1_EV_IRQHandler+0xe4>)
 8000c56:	685b      	ldr	r3, [r3, #4]
 8000c58:	f403 7300 	and.w	r3, r3, #512	; 0x200
 8000c5c:	60bb      	str	r3, [r7, #8]
 8000c5e:	4b31      	ldr	r3, [pc, #196]	; (8000d24 <I2C1_EV_IRQHandler+0xe4>)
 8000c60:	685b      	ldr	r3, [r3, #4]
 8000c62:	f403 6380 	and.w	r3, r3, #1024	; 0x400
 8000c66:	607b      	str	r3, [r7, #4]
 8000c68:	68bb      	ldr	r3, [r7, #8]
 8000c6a:	2b00      	cmp	r3, #0
 8000c6c:	d00a      	beq.n	8000c84 <I2C1_EV_IRQHandler+0x44>
 8000c6e:	68fb      	ldr	r3, [r7, #12]
 8000c70:	2b00      	cmp	r3, #0
 8000c72:	d007      	beq.n	8000c84 <I2C1_EV_IRQHandler+0x44>
 8000c74:	4b2b      	ldr	r3, [pc, #172]	; (8000d24 <I2C1_EV_IRQHandler+0xe4>)
 8000c76:	4a2b      	ldr	r2, [pc, #172]	; (8000d24 <I2C1_EV_IRQHandler+0xe4>)
 8000c78:	681b      	ldr	r3, [r3, #0]
 8000c7a:	6013      	str	r3, [r2, #0]
 8000c7c:	2100      	movs	r1, #0
 8000c7e:	4829      	ldr	r0, [pc, #164]	; (8000d24 <I2C1_EV_IRQHandler+0xe4>)
 8000c80:	f7ff ff72 	bl	8000b68 <Slave_Status>
 8000c84:	4b27      	ldr	r3, [pc, #156]	; (8000d24 <I2C1_EV_IRQHandler+0xe4>)
 8000c86:	695b      	ldr	r3, [r3, #20]
 8000c88:	f003 0302 	and.w	r3, r3, #2
 8000c8c:	60fb      	str	r3, [r7, #12]
 8000c8e:	68bb      	ldr	r3, [r7, #8]
 8000c90:	2b00      	cmp	r3, #0
 8000c92:	d012      	beq.n	8000cba <I2C1_EV_IRQHandler+0x7a>
 8000c94:	68fb      	ldr	r3, [r7, #12]
 8000c96:	2b00      	cmp	r3, #0
 8000c98:	d00f      	beq.n	8000cba <I2C1_EV_IRQHandler+0x7a>
 8000c9a:	4b22      	ldr	r3, [pc, #136]	; (8000d24 <I2C1_EV_IRQHandler+0xe4>)
 8000c9c:	699b      	ldr	r3, [r3, #24]
 8000c9e:	f003 0301 	and.w	r3, r3, #1
 8000ca2:	2b00      	cmp	r3, #0
 8000ca4:	d109      	bne.n	8000cba <I2C1_EV_IRQHandler+0x7a>
 8000ca6:	4b1f      	ldr	r3, [pc, #124]	; (8000d24 <I2C1_EV_IRQHandler+0xe4>)
 8000ca8:	695b      	ldr	r3, [r3, #20]
 8000caa:	603b      	str	r3, [r7, #0]
 8000cac:	4b1d      	ldr	r3, [pc, #116]	; (8000d24 <I2C1_EV_IRQHandler+0xe4>)
 8000cae:	699b      	ldr	r3, [r3, #24]
 8000cb0:	603b      	str	r3, [r7, #0]
 8000cb2:	2101      	movs	r1, #1
 8000cb4:	481b      	ldr	r0, [pc, #108]	; (8000d24 <I2C1_EV_IRQHandler+0xe4>)
 8000cb6:	f7ff ff57 	bl	8000b68 <Slave_Status>
 8000cba:	4b1a      	ldr	r3, [pc, #104]	; (8000d24 <I2C1_EV_IRQHandler+0xe4>)
 8000cbc:	695b      	ldr	r3, [r3, #20]
 8000cbe:	f003 0380 	and.w	r3, r3, #128	; 0x80
 8000cc2:	60fb      	str	r3, [r7, #12]
 8000cc4:	68bb      	ldr	r3, [r7, #8]
 8000cc6:	2b00      	cmp	r3, #0
 8000cc8:	d00f      	beq.n	8000cea <I2C1_EV_IRQHandler+0xaa>
 8000cca:	687b      	ldr	r3, [r7, #4]
 8000ccc:	2b00      	cmp	r3, #0
 8000cce:	d00c      	beq.n	8000cea <I2C1_EV_IRQHandler+0xaa>
 8000cd0:	68fb      	ldr	r3, [r7, #12]
 8000cd2:	2b00      	cmp	r3, #0
 8000cd4:	d009      	beq.n	8000cea <I2C1_EV_IRQHandler+0xaa>
 8000cd6:	4b13      	ldr	r3, [pc, #76]	; (8000d24 <I2C1_EV_IRQHandler+0xe4>)
 8000cd8:	699b      	ldr	r3, [r3, #24]
 8000cda:	f003 0301 	and.w	r3, r3, #1
 8000cde:	2b00      	cmp	r3, #0
 8000ce0:	d103      	bne.n	8000cea <I2C1_EV_IRQHandler+0xaa>
 8000ce2:	2102      	movs	r1, #2
 8000ce4:	480f      	ldr	r0, [pc, #60]	; (8000d24 <I2C1_EV_IRQHandler+0xe4>)
 8000ce6:	f7ff ff3f 	bl	8000b68 <Slave_Status>
 8000cea:	4b0e      	ldr	r3, [pc, #56]	; (8000d24 <I2C1_EV_IRQHandler+0xe4>)
 8000cec:	695b      	ldr	r3, [r3, #20]
 8000cee:	f003 0340 	and.w	r3, r3, #64	; 0x40
 8000cf2:	60fb      	str	r3, [r7, #12]
 8000cf4:	68bb      	ldr	r3, [r7, #8]
 8000cf6:	2b00      	cmp	r3, #0
 8000cf8:	d00f      	beq.n	8000d1a <I2C1_EV_IRQHandler+0xda>
 8000cfa:	687b      	ldr	r3, [r7, #4]
 8000cfc:	2b00      	cmp	r3, #0
 8000cfe:	d00c      	beq.n	8000d1a <I2C1_EV_IRQHandler+0xda>
 8000d00:	68fb      	ldr	r3, [r7, #12]
 8000d02:	2b00      	cmp	r3, #0
 8000d04:	d009      	beq.n	8000d1a <I2C1_EV_IRQHandler+0xda>
 8000d06:	4b07      	ldr	r3, [pc, #28]	; (8000d24 <I2C1_EV_IRQHandler+0xe4>)
 8000d08:	699b      	ldr	r3, [r3, #24]
 8000d0a:	f003 0301 	and.w	r3, r3, #1
 8000d0e:	2b00      	cmp	r3, #0
 8000d10:	d103      	bne.n	8000d1a <I2C1_EV_IRQHandler+0xda>
 8000d12:	2103      	movs	r1, #3
 8000d14:	4803      	ldr	r0, [pc, #12]	; (8000d24 <I2C1_EV_IRQHandler+0xe4>)
 8000d16:	f7ff ff27 	bl	8000b68 <Slave_Status>
 8000d1a:	bf00      	nop
 8000d1c:	3710      	adds	r7, #16
 8000d1e:	46bd      	mov	sp, r7
 8000d20:	bd80      	pop	{r7, pc}
 8000d22:	bf00      	nop
 8000d24:	40005400 	andmi	r5, r0, r0, lsl #8

08000d28 <SPI1_IRQHandler>:
 8000d28:	b580      	push	{r7, lr}
 8000d2a:	b082      	sub	sp, #8
 8000d2c:	af00      	add	r7, sp, #0
 8000d2e:	4b13      	ldr	r3, [pc, #76]	; (8000d7c <SPI1_IRQHandler+0x54>)
 8000d30:	689b      	ldr	r3, [r3, #8]
 8000d32:	085b      	lsrs	r3, r3, #1
 8000d34:	f003 0301 	and.w	r3, r3, #1
 8000d38:	b2da      	uxtb	r2, r3
 8000d3a:	793b      	ldrb	r3, [r7, #4]
 8000d3c:	f362 0300 	bfi	r3, r2, #0, #1
 8000d40:	713b      	strb	r3, [r7, #4]
 8000d42:	4b0e      	ldr	r3, [pc, #56]	; (8000d7c <SPI1_IRQHandler+0x54>)
 8000d44:	689b      	ldr	r3, [r3, #8]
 8000d46:	f003 0301 	and.w	r3, r3, #1
 8000d4a:	b2da      	uxtb	r2, r3
 8000d4c:	793b      	ldrb	r3, [r7, #4]
 8000d4e:	f362 0341 	bfi	r3, r2, #1, #1
 8000d52:	713b      	strb	r3, [r7, #4]
 8000d54:	4b09      	ldr	r3, [pc, #36]	; (8000d7c <SPI1_IRQHandler+0x54>)
 8000d56:	689b      	ldr	r3, [r3, #8]
 8000d58:	091b      	lsrs	r3, r3, #4
 8000d5a:	f003 0301 	and.w	r3, r3, #1
 8000d5e:	b2da      	uxtb	r2, r3
 8000d60:	793b      	ldrb	r3, [r7, #4]
 8000d62:	f362 0382 	bfi	r3, r2, #2, #1
 8000d66:	713b      	strb	r3, [r7, #4]
 8000d68:	4b05      	ldr	r3, [pc, #20]	; (8000d80 <SPI1_IRQHandler+0x58>)
 8000d6a:	681b      	ldr	r3, [r3, #0]
 8000d6c:	699b      	ldr	r3, [r3, #24]
 8000d6e:	7938      	ldrb	r0, [r7, #4]
 8000d70:	4798      	blx	r3
 8000d72:	bf00      	nop
 8000d74:	3708      	adds	r7, #8
 8000d76:	46bd      	mov	sp, r7
 8000d78:	bd80      	pop	{r7, pc}
 8000d7a:	bf00      	nop
 8000d7c:	40013000 	andmi	r3, r1, r0
 8000d80:	2000005c 	andcs	r0, r0, ip, asr r0

08000d84 <SPI2_IRQHandler>:
 8000d84:	b580      	push	{r7, lr}
 8000d86:	b082      	sub	sp, #8
 8000d88:	af00      	add	r7, sp, #0
 8000d8a:	4b13      	ldr	r3, [pc, #76]	; (8000dd8 <SPI2_IRQHandler+0x54>)
 8000d8c:	689b      	ldr	r3, [r3, #8]
 8000d8e:	085b      	lsrs	r3, r3, #1
 8000d90:	f003 0301 	and.w	r3, r3, #1
 8000d94:	b2da      	uxtb	r2, r3
 8000d96:	793b      	ldrb	r3, [r7, #4]
 8000d98:	f362 0300 	bfi	r3, r2, #0, #1
 8000d9c:	713b      	strb	r3, [r7, #4]
 8000d9e:	4b0e      	ldr	r3, [pc, #56]	; (8000dd8 <SPI2_IRQHandler+0x54>)
 8000da0:	689b      	ldr	r3, [r3, #8]
 8000da2:	f003 0301 	and.w	r3, r3, #1
 8000da6:	b2da      	uxtb	r2, r3
 8000da8:	793b      	ldrb	r3, [r7, #4]
 8000daa:	f362 0341 	bfi	r3, r2, #1, #1
 8000dae:	713b      	strb	r3, [r7, #4]
 8000db0:	4b09      	ldr	r3, [pc, #36]	; (8000dd8 <SPI2_IRQHandler+0x54>)
 8000db2:	689b      	ldr	r3, [r3, #8]
 8000db4:	091b      	lsrs	r3, r3, #4
 8000db6:	f003 0301 	and.w	r3, r3, #1
 8000dba:	b2da      	uxtb	r2, r3
 8000dbc:	793b      	ldrb	r3, [r7, #4]
 8000dbe:	f362 0382 	bfi	r3, r2, #2, #1
 8000dc2:	713b      	strb	r3, [r7, #4]
 8000dc4:	4b05      	ldr	r3, [pc, #20]	; (8000ddc <SPI2_IRQHandler+0x58>)
 8000dc6:	685b      	ldr	r3, [r3, #4]
 8000dc8:	699b      	ldr	r3, [r3, #24]
 8000dca:	7938      	ldrb	r0, [r7, #4]
 8000dcc:	4798      	blx	r3
 8000dce:	bf00      	nop
 8000dd0:	3708      	adds	r7, #8
 8000dd2:	46bd      	mov	sp, r7
 8000dd4:	bd80      	pop	{r7, pc}
 8000dd6:	bf00      	nop
 8000dd8:	40003800 	andmi	r3, r0, r0, lsl #16
 8000ddc:	2000005c 	andcs	r0, r0, ip, asr r0

08000de0 <USART1_IRQHandler>:
 8000de0:	b580      	push	{r7, lr}
 8000de2:	af00      	add	r7, sp, #0
 8000de4:	4b02      	ldr	r3, [pc, #8]	; (8000df0 <USART1_IRQHandler+0x10>)
 8000de6:	681b      	ldr	r3, [r3, #0]
 8000de8:	68db      	ldr	r3, [r3, #12]
 8000dea:	4798      	blx	r3
 8000dec:	bf00      	nop
 8000dee:	bd80      	pop	{r7, pc}
 8000df0:	20000064 	andcs	r0, r0, r4, rrx

08000df4 <USART2_IRQHandler>:
 8000df4:	b580      	push	{r7, lr}
 8000df6:	af00      	add	r7, sp, #0
 8000df8:	4b02      	ldr	r3, [pc, #8]	; (8000e04 <USART2_IRQHandler+0x10>)
 8000dfa:	685b      	ldr	r3, [r3, #4]
 8000dfc:	68db      	ldr	r3, [r3, #12]
 8000dfe:	4798      	blx	r3
 8000e00:	bf00      	nop
 8000e02:	bd80      	pop	{r7, pc}
 8000e04:	20000064 	andcs	r0, r0, r4, rrx

08000e08 <USART3_IRQHandler>:
 8000e08:	b580      	push	{r7, lr}
 8000e0a:	af00      	add	r7, sp, #0
 8000e0c:	4b02      	ldr	r3, [pc, #8]	; (8000e18 <USART3_IRQHandler+0x10>)
 8000e0e:	689b      	ldr	r3, [r3, #8]
 8000e10:	68db      	ldr	r3, [r3, #12]
 8000e12:	4798      	blx	r3
 8000e14:	bf00      	nop
 8000e16:	bd80      	pop	{r7, pc}
 8000e18:	20000064 	andcs	r0, r0, r4, rrx

08000e1c <__libc_init_array>:
 8000e1c:	b570      	push	{r4, r5, r6, lr}
 8000e1e:	2500      	movs	r5, #0
 8000e20:	4e0c      	ldr	r6, [pc, #48]	; (8000e54 <__libc_init_array+0x38>)
 8000e22:	4c0d      	ldr	r4, [pc, #52]	; (8000e58 <__libc_init_array+0x3c>)
 8000e24:	1ba4      	subs	r4, r4, r6
 8000e26:	10a4      	asrs	r4, r4, #2
 8000e28:	42a5      	cmp	r5, r4
 8000e2a:	d109      	bne.n	8000e40 <__libc_init_array+0x24>
 8000e2c:	f000 f81a 	bl	8000e64 <_init>
 8000e30:	2500      	movs	r5, #0
 8000e32:	4e0a      	ldr	r6, [pc, #40]	; (8000e5c <__libc_init_array+0x40>)
 8000e34:	4c0a      	ldr	r4, [pc, #40]	; (8000e60 <__libc_init_array+0x44>)
 8000e36:	1ba4      	subs	r4, r4, r6
 8000e38:	10a4      	asrs	r4, r4, #2
 8000e3a:	42a5      	cmp	r5, r4
 8000e3c:	d105      	bne.n	8000e4a <__libc_init_array+0x2e>
 8000e3e:	bd70      	pop	{r4, r5, r6, pc}
 8000e40:	f856 3025 	ldr.w	r3, [r6, r5, lsl #2]
 8000e44:	4798      	blx	r3
 8000e46:	3501      	adds	r5, #1
 8000e48:	e7ee      	b.n	8000e28 <__libc_init_array+0xc>
 8000e4a:	f856 3025 	ldr.w	r3, [r6, r5, lsl #2]
 8000e4e:	4798      	blx	r3
 8000e50:	3501      	adds	r5, #1
 8000e52:	e7f2      	b.n	8000e3a <__libc_init_array+0x1e>
 8000e54:	08000e88 	stmdaeq	r0, {r3, r7, r9, sl, fp}
 8000e58:	08000e88 	stmdaeq	r0, {r3, r7, r9, sl, fp}
 8000e5c:	08000e88 	stmdaeq	r0, {r3, r7, r9, sl, fp}
 8000e60:	08000e8c 	stmdaeq	r0, {r2, r3, r7, r9, sl, fp}

08000e64 <_init>:
 8000e64:	b5f8      	push	{r3, r4, r5, r6, r7, lr}
 8000e66:	bf00      	nop
 8000e68:	bcf8      	pop	{r3, r4, r5, r6, r7}
 8000e6a:	bc08      	pop	{r3}
 8000e6c:	469e      	mov	lr, r3
 8000e6e:	4770      	bx	lr

08000e70 <_fini>:
 8000e70:	b5f8      	push	{r3, r4, r5, r6, r7, lr}
 8000e72:	bf00      	nop
 8000e74:	bcf8      	pop	{r3, r4, r5, r6, r7}
 8000e76:	bc08      	pop	{r3}
 8000e78:	469e      	mov	lr, r3
 8000e7a:	4770      	bx	lr
